
objs/7-test-realtime-yield.elf:     file format elf32-littlearm


Disassembly of section .text:

00008000 <__code_start__>:
    8000:	e3a00013 	mov	r0, #19, 0
    8004:	e3800080 	orr	r0, r0, #128, 0	; 0x80
    8008:	e129f000 	msr	CPSR_fc, r0
    800c:	e3a01000 	mov	r1, #0, 0
    8010:	ee071f95 	mcr	15, 0, r1, cr7, cr5, {4}
    8014:	e3a0d302 	mov	sp, #134217728	; 0x8000000
    8018:	e3a0b000 	mov	fp, #0, 0
    801c:	eb0004be 	bl	931c <_cstart>
    8020:	eb0004f4 	bl	93f8 <rpi_reboot>

00008024 <PUT32>:
    8024:	e5801000 	str	r1, [r0]
    8028:	e12fff1e 	bx	lr

0000802c <GET32>:
    802c:	e5900000 	ldr	r0, [r0]
    8030:	e12fff1e 	bx	lr

00008034 <BRANCHTO>:
    8034:	e12fff10 	bx	r0

00008038 <wait_usec>:
    8038:	e92d4030 	push	{r4, r5, lr}
    803c:	e24dd00c 	sub	sp, sp, #12, 0
    8040:	e1a04000 	mov	r4, r0
    8044:	e59f3050 	ldr	r3, [pc, #80]	; 809c <wait_usec+0x64>
    8048:	e1500003 	cmp	r0, r3
    804c:	2a000007 	bcs	8070 <wait_usec+0x38>
    8050:	eb000502 	bl	9460 <timer_get_usec>
    8054:	e1a05000 	mov	r5, r0
    8058:	eb000500 	bl	9460 <timer_get_usec>
    805c:	e0400005 	sub	r0, r0, r5
    8060:	e1500004 	cmp	r0, r4
    8064:	3a00000a 	bcc	8094 <wait_usec+0x5c>
    8068:	eb00017f 	bl	866c <rpi_yield>
    806c:	eafffff9 	b	8058 <wait_usec+0x20>
    8070:	e58d0004 	str	r0, [sp, #4]
    8074:	e59f3024 	ldr	r3, [pc, #36]	; 80a0 <wait_usec+0x68>
    8078:	e58d3000 	str	r3, [sp]
    807c:	e3a0300f 	mov	r3, #15, 0
    8080:	e59f201c 	ldr	r2, [pc, #28]	; 80a4 <wait_usec+0x6c>
    8084:	e59f101c 	ldr	r1, [pc, #28]	; 80a8 <wait_usec+0x70>
    8088:	e59f001c 	ldr	r0, [pc, #28]	; 80ac <wait_usec+0x74>
    808c:	eb00036a 	bl	8e3c <printk>
    8090:	eb000499 	bl	92fc <clean_reboot>
    8094:	e28dd00c 	add	sp, sp, #12, 0
    8098:	e8bd8030 	pop	{r4, r5, pc}
    809c:	000186a0 	.word	0x000186a0
    80a0:	00009918 	.word	0x00009918
    80a4:	00009994 	.word	0x00009994
    80a8:	000098b0 	.word	0x000098b0
    80ac:	000098c8 	.word	0x000098c8

000080b0 <blink>:
    80b0:	e92d40f0 	push	{r4, r5, r6, r7, lr}
    80b4:	e24dd00c 	sub	sp, sp, #12, 0
    80b8:	e1a05000 	mov	r5, r0
    80bc:	e5900004 	ldr	r0, [r0, #4]
    80c0:	eb00051c 	bl	9538 <gpio_set_output>
    80c4:	e5956000 	ldr	r6, [r5]
    80c8:	e2463001 	sub	r3, r6, #1, 0
    80cc:	e3530063 	cmp	r3, #99, 0	; 0x63
    80d0:	8a00000d 	bhi	810c <blink+0x5c>
    80d4:	e2667064 	rsb	r7, r6, #100, 0	; 0x64
    80d8:	e3a04000 	mov	r4, #0, 0
    80dc:	e3540ffa 	cmp	r4, #1000	; 0x3e8
    80e0:	aa000011 	bge	812c <blink+0x7c>
    80e4:	e5950004 	ldr	r0, [r5, #4]
    80e8:	eb000516 	bl	9548 <gpio_set_on>
    80ec:	e1a00006 	mov	r0, r6
    80f0:	ebffffd0 	bl	8038 <wait_usec>
    80f4:	e5950004 	ldr	r0, [r5, #4]
    80f8:	eb000524 	bl	9590 <gpio_set_off>
    80fc:	e1a00007 	mov	r0, r7
    8100:	ebffffcc 	bl	8038 <wait_usec>
    8104:	e2844001 	add	r4, r4, #1, 0
    8108:	eafffff3 	b	80dc <blink+0x2c>
    810c:	e59f3020 	ldr	r3, [pc, #32]	; 8134 <blink+0x84>
    8110:	e58d3000 	str	r3, [sp]
    8114:	e3a0301e 	mov	r3, #30, 0
    8118:	e59f2018 	ldr	r2, [pc, #24]	; 8138 <blink+0x88>
    811c:	e59f1018 	ldr	r1, [pc, #24]	; 813c <blink+0x8c>
    8120:	e59f0018 	ldr	r0, [pc, #24]	; 8140 <blink+0x90>
    8124:	eb000344 	bl	8e3c <printk>
    8128:	eb000473 	bl	92fc <clean_reboot>
    812c:	e28dd00c 	add	sp, sp, #12, 0
    8130:	e8bd80f0 	pop	{r4, r5, r6, r7, pc}
    8134:	00009960 	.word	0x00009960
    8138:	000099a0 	.word	0x000099a0
    813c:	000098b0 	.word	0x000098b0
    8140:	00009924 	.word	0x00009924

00008144 <notmain>:
    8144:	e92d4070 	push	{r4, r5, r6, lr}
    8148:	e24dd010 	sub	sp, sp, #16, 0
    814c:	e3a01601 	mov	r1, #1048576	; 0x100000
    8150:	e1a00001 	mov	r0, r1
    8154:	eb00022e 	bl	8a14 <kmalloc_init_set_start>
    8158:	e59f4058 	ldr	r4, [pc, #88]	; 81b8 <notmain+0x74>
    815c:	e28d3008 	add	r3, sp, #8, 0
    8160:	e5941018 	ldr	r1, [r4, #24]
    8164:	e5940014 	ldr	r0, [r4, #20]
    8168:	e8830003 	stm	r3, {r0, r1}
    816c:	e1a0500d 	mov	r5, sp
    8170:	e5941020 	ldr	r1, [r4, #32]
    8174:	e594001c 	ldr	r0, [r4, #28]
    8178:	e8850003 	stm	r5, {r0, r1}
    817c:	e59f6038 	ldr	r6, [pc, #56]	; 81bc <notmain+0x78>
    8180:	e1a01003 	mov	r1, r3
    8184:	e1a00006 	mov	r0, r6
    8188:	eb0000de 	bl	8508 <rpi_fork>
    818c:	e1a01005 	mov	r1, r5
    8190:	e1a00006 	mov	r0, r6
    8194:	eb0000db 	bl	8508 <rpi_fork>
    8198:	eb000161 	bl	8724 <rpi_thread_start>
    819c:	e2841024 	add	r1, r4, #36, 0	; 0x24
    81a0:	e59f0018 	ldr	r0, [pc, #24]	; 81c0 <notmain+0x7c>
    81a4:	eb000324 	bl	8e3c <printk>
    81a8:	e59f0014 	ldr	r0, [pc, #20]	; 81c4 <notmain+0x80>
    81ac:	eb000322 	bl	8e3c <printk>
    81b0:	e28dd010 	add	sp, sp, #16, 0
    81b4:	e8bd8070 	pop	{r4, r5, r6, pc}
    81b8:	00009994 	.word	0x00009994
    81bc:	000080b0 	.word	0x000080b0
    81c0:	00009980 	.word	0x00009980
    81c4:	0000998c 	.word	0x0000998c

000081c8 <rpi_get_sp>:
    81c8:	e3a0d409 	mov	sp, #150994944	; 0x9000000
    81cc:	e24f0004 	sub	r0, pc, #4, 0
    81d0:	e28f1000 	add	r1, pc, #0, 0
    81d4:	ea000435 	b	92b0 <asm_todo_helper>
    81d8:	2d697072 	.word	0x2d697072
    81dc:	65726874 	.word	0x65726874
    81e0:	612d6461 	.word	0x612d6461
    81e4:	532e6d73 	.word	0x532e6d73
    81e8:	3c3a383a 	.word	0x3c3a383a
    81ec:	706d6922 	.word	0x706d6922
    81f0:	656d656c 	.word	0x656d656c
    81f4:	7420746e 	.word	0x7420746e
    81f8:	22736968 	.word	0x22736968
    81fc:	003e      	.short	0x003e
    81fe:	0000      	.short	0x0000
    8200:	e12fff1e 	bx	lr

00008204 <rpi_cswitch>:
    8204:	e92d4ff0 	push	{r4, r5, r6, r7, r8, r9, sl, fp, lr}
    8208:	e580d000 	str	sp, [r0]
    820c:	e1a0d001 	mov	sp, r1
    8210:	e8bd4ff0 	pop	{r4, r5, r6, r7, r8, r9, sl, fp, lr}
    8214:	e12fff1e 	bx	lr

00008218 <rpi_init_trampoline>:
    8218:	e1a00004 	mov	r0, r4
    821c:	e1a01005 	mov	r1, r5
    8220:	e12fff31 	blx	r1
    8224:	eb0000ea 	bl	85d4 <rpi_exit>

00008228 <Q_nelem>:
    8228:	e5900008 	ldr	r0, [r0, #8]
    822c:	e12fff1e 	bx	lr

00008230 <Q_append>:
    8230:	e3a03000 	mov	r3, #0, 0
    8234:	e5813004 	str	r3, [r1, #4]
    8238:	e5903008 	ldr	r3, [r0, #8]
    823c:	e2833001 	add	r3, r3, #1, 0
    8240:	e5803008 	str	r3, [r0, #8]
    8244:	e5903004 	ldr	r3, [r0, #4]
    8248:	e3530000 	cmp	r3, #0, 0
    824c:	0a000002 	beq	825c <Q_append+0x2c>
    8250:	e5831004 	str	r1, [r3, #4]
    8254:	e5801004 	str	r1, [r0, #4]
    8258:	e12fff1e 	bx	lr
    825c:	e5801004 	str	r1, [r0, #4]
    8260:	e5801000 	str	r1, [r0]
    8264:	e12fff1e 	bx	lr

00008268 <redzone_check>:
    8268:	e92d4070 	push	{r4, r5, r6, lr}
    826c:	e2501000 	subs	r1, r0, #0, 0
    8270:	0a000001 	beq	827c <redzone_check+0x14>
    8274:	e59f004c 	ldr	r0, [pc, #76]	; 82c8 <redzone_check+0x60>
    8278:	eb0002ef 	bl	8e3c <printk>
    827c:	e3a04000 	mov	r4, #0, 0
    8280:	e1a05004 	mov	r5, r4
    8284:	ea000005 	b	82a0 <redzone_check+0x38>
    8288:	e2855001 	add	r5, r5, #1, 0
    828c:	e5912000 	ldr	r2, [r1]
    8290:	e1a03005 	mov	r3, r5
    8294:	e59f0030 	ldr	r0, [pc, #48]	; 82cc <redzone_check+0x64>
    8298:	eb0002e7 	bl	8e3c <printk>
    829c:	e2844001 	add	r4, r4, #1, 0
    82a0:	e3540b01 	cmp	r4, #1024	; 0x400
    82a4:	2a000004 	bcs	82bc <redzone_check+0x54>
    82a8:	e1a01104 	lsl	r1, r4, #2
    82ac:	e5913000 	ldr	r3, [r1]
    82b0:	e3530000 	cmp	r3, #0, 0
    82b4:	0afffff8 	beq	829c <redzone_check+0x34>
    82b8:	eafffff2 	b	8288 <redzone_check+0x20>
    82bc:	e16f0f15 	clz	r0, r5
    82c0:	e1a002a0 	lsr	r0, r0, #5
    82c4:	e8bd8070 	pop	{r4, r5, r6, pc}
    82c8:	000099c0 	.word	0x000099c0
    82cc:	000099d8 	.word	0x000099d8

000082d0 <Q_empty>:
    82d0:	e5903000 	ldr	r3, [r0]
    82d4:	e3530000 	cmp	r3, #0, 0
    82d8:	0a000001 	beq	82e4 <Q_empty+0x14>
    82dc:	e3a00000 	mov	r0, #0, 0
    82e0:	e12fff1e 	bx	lr
    82e4:	e92d4010 	push	{r4, lr}
    82e8:	e24dd008 	sub	sp, sp, #8, 0
    82ec:	e1a04000 	mov	r4, r0
    82f0:	ebffffcc 	bl	8228 <Q_nelem>
    82f4:	e3500000 	cmp	r0, #0, 0
    82f8:	1a000005 	bne	8314 <Q_empty+0x44>
    82fc:	e5943004 	ldr	r3, [r4, #4]
    8300:	e3530000 	cmp	r3, #0, 0
    8304:	1a00000a 	bne	8334 <Q_empty+0x64>
    8308:	e3a00001 	mov	r0, #1, 0
    830c:	e28dd008 	add	sp, sp, #8, 0
    8310:	e8bd8010 	pop	{r4, pc}
    8314:	e59f3038 	ldr	r3, [pc, #56]	; 8354 <Q_empty+0x84>
    8318:	e58d3000 	str	r3, [sp]
    831c:	e3a03015 	mov	r3, #21, 0
    8320:	e59f2030 	ldr	r2, [pc, #48]	; 8358 <Q_empty+0x88>
    8324:	e59f1030 	ldr	r1, [pc, #48]	; 835c <Q_empty+0x8c>
    8328:	e59f0030 	ldr	r0, [pc, #48]	; 8360 <Q_empty+0x90>
    832c:	eb0002c2 	bl	8e3c <printk>
    8330:	eb0003f1 	bl	92fc <clean_reboot>
    8334:	e59f3028 	ldr	r3, [pc, #40]	; 8364 <Q_empty+0x94>
    8338:	e58d3000 	str	r3, [sp]
    833c:	e3a03016 	mov	r3, #22, 0
    8340:	e59f2010 	ldr	r2, [pc, #16]	; 8358 <Q_empty+0x88>
    8344:	e59f1010 	ldr	r1, [pc, #16]	; 835c <Q_empty+0x8c>
    8348:	e59f0018 	ldr	r0, [pc, #24]	; 8368 <Q_empty+0x98>
    834c:	eb0002ba 	bl	8e3c <printk>
    8350:	eb0003e9 	bl	92fc <clean_reboot>
    8354:	00009a74 	.word	0x00009a74
    8358:	00009d1c 	.word	0x00009d1c
    835c:	00009a04 	.word	0x00009a04
    8360:	00009a44 	.word	0x00009a44
    8364:	00009ab8 	.word	0x00009ab8
    8368:	00009a84 	.word	0x00009a84

0000836c <Q_pop>:
    836c:	e92d4010 	push	{r4, lr}
    8370:	e24dd008 	sub	sp, sp, #8, 0
    8374:	e3500000 	cmp	r0, #0, 0
    8378:	0a00000c 	beq	83b0 <Q_pop+0x44>
    837c:	e5904000 	ldr	r4, [r0]
    8380:	e3540000 	cmp	r4, #0, 0
    8384:	0a000011 	beq	83d0 <Q_pop+0x64>
    8388:	e5903008 	ldr	r3, [r0, #8]
    838c:	e2433001 	sub	r3, r3, #1, 0
    8390:	e5803008 	str	r3, [r0, #8]
    8394:	e5943004 	ldr	r3, [r4, #4]
    8398:	e5803000 	str	r3, [r0]
    839c:	e3530000 	cmp	r3, #0, 0
    83a0:	0a000015 	beq	83fc <Q_pop+0x90>
    83a4:	e1a00004 	mov	r0, r4
    83a8:	e28dd008 	add	sp, sp, #8, 0
    83ac:	e8bd8010 	pop	{r4, pc}
    83b0:	e59f304c 	ldr	r3, [pc, #76]	; 8404 <Q_pop+0x98>
    83b4:	e58d3000 	str	r3, [sp]
    83b8:	e3a0301c 	mov	r3, #28, 0
    83bc:	e59f2044 	ldr	r2, [pc, #68]	; 8408 <Q_pop+0x9c>
    83c0:	e59f1044 	ldr	r1, [pc, #68]	; 840c <Q_pop+0xa0>
    83c4:	e59f0044 	ldr	r0, [pc, #68]	; 8410 <Q_pop+0xa4>
    83c8:	eb00029b 	bl	8e3c <printk>
    83cc:	eb0003ca 	bl	92fc <clean_reboot>
    83d0:	ebffffbe 	bl	82d0 <Q_empty>
    83d4:	e3500000 	cmp	r0, #0, 0
    83d8:	1afffff1 	bne	83a4 <Q_pop+0x38>
    83dc:	e59f3030 	ldr	r3, [pc, #48]	; 8414 <Q_pop+0xa8>
    83e0:	e58d3000 	str	r3, [sp]
    83e4:	e3a03020 	mov	r3, #32, 0
    83e8:	e59f2018 	ldr	r2, [pc, #24]	; 8408 <Q_pop+0x9c>
    83ec:	e59f1018 	ldr	r1, [pc, #24]	; 840c <Q_pop+0xa0>
    83f0:	e59f0020 	ldr	r0, [pc, #32]	; 8418 <Q_pop+0xac>
    83f4:	eb000290 	bl	8e3c <printk>
    83f8:	eb0003bf 	bl	92fc <clean_reboot>
    83fc:	e5803004 	str	r3, [r0, #4]
    8400:	eaffffe7 	b	83a4 <Q_pop+0x38>
    8404:	00009af8 	.word	0x00009af8
    8408:	00009d24 	.word	0x00009d24
    840c:	00009a04 	.word	0x00009a04
    8410:	00009ac4 	.word	0x00009ac4
    8414:	00009afc 	.word	0x00009afc
    8418:	00009a44 	.word	0x00009a44

0000841c <th_alloc>:
    841c:	e92d4030 	push	{r4, r5, lr}
    8420:	e24dd00c 	sub	sp, sp, #12, 0
    8424:	e3a04000 	mov	r4, #0, 0
    8428:	e1a05004 	mov	r5, r4
    842c:	ea000005 	b	8448 <th_alloc+0x2c>
    8430:	e2855001 	add	r5, r5, #1, 0
    8434:	e5912000 	ldr	r2, [r1]
    8438:	e1a03005 	mov	r3, r5
    843c:	e59f0094 	ldr	r0, [pc, #148]	; 84d8 <th_alloc+0xbc>
    8440:	eb00027d 	bl	8e3c <printk>
    8444:	e2844001 	add	r4, r4, #1, 0
    8448:	e3540b01 	cmp	r4, #1024	; 0x400
    844c:	2a000004 	bcs	8464 <th_alloc+0x48>
    8450:	e1a01104 	lsl	r1, r4, #2
    8454:	e5913000 	ldr	r3, [r1]
    8458:	e3530000 	cmp	r3, #0, 0
    845c:	0afffff8 	beq	8444 <th_alloc+0x28>
    8460:	eafffff2 	b	8430 <th_alloc+0x14>
    8464:	e59f0070 	ldr	r0, [pc, #112]	; 84dc <th_alloc+0xc0>
    8468:	ebffffbf 	bl	836c <Q_pop>
    846c:	e3500000 	cmp	r0, #0, 0
    8470:	0a000008 	beq	8498 <th_alloc+0x7c>
    8474:	e3100007 	tst	r0, #7, 0
    8478:	1a00000e 	bne	84b8 <th_alloc+0x9c>
    847c:	e59f205c 	ldr	r2, [pc, #92]	; 84e0 <th_alloc+0xc4>
    8480:	e5923000 	ldr	r3, [r2]
    8484:	e2831001 	add	r1, r3, #1, 0
    8488:	e5821000 	str	r1, [r2]
    848c:	e5803008 	str	r3, [r0, #8]
    8490:	e28dd00c 	add	sp, sp, #12, 0
    8494:	e8bd8030 	pop	{r4, r5, pc}
    8498:	e3a01008 	mov	r1, #8, 0
    849c:	e59f0040 	ldr	r0, [pc, #64]	; 84e4 <th_alloc+0xc8>
    84a0:	eb0001dc 	bl	8c18 <kmalloc_aligned>
    84a4:	e59f2030 	ldr	r2, [pc, #48]	; 84dc <th_alloc+0xc0>
    84a8:	e592300c 	ldr	r3, [r2, #12]
    84ac:	e2833001 	add	r3, r3, #1, 0
    84b0:	e582300c 	str	r3, [r2, #12]
    84b4:	eaffffee 	b	8474 <th_alloc+0x58>
    84b8:	e59f3028 	ldr	r3, [pc, #40]	; 84e8 <th_alloc+0xcc>
    84bc:	e58d3000 	str	r3, [sp]
    84c0:	e3a03034 	mov	r3, #52, 0	; 0x34
    84c4:	e59f2020 	ldr	r2, [pc, #32]	; 84ec <th_alloc+0xd0>
    84c8:	e59f1020 	ldr	r1, [pc, #32]	; 84f0 <th_alloc+0xd4>
    84cc:	e59f0020 	ldr	r0, [pc, #32]	; 84f4 <th_alloc+0xd8>
    84d0:	eb000259 	bl	8e3c <printk>
    84d4:	eb000388 	bl	92fc <clean_reboot>
    84d8:	000099d8 	.word	0x000099d8
    84dc:	0000a260 	.word	0x0000a260
    84e0:	0000a24c 	.word	0x0000a24c
    84e4:	00002018 	.word	0x00002018
    84e8:	00009b60 	.word	0x00009b60
    84ec:	00009d2c 	.word	0x00009d2c
    84f0:	00009b08 	.word	0x00009b08
    84f4:	00009b18 	.word	0x00009b18

000084f8 <rpi_cur_thread>:
    84f8:	e59f3004 	ldr	r3, [pc, #4]	; 8504 <rpi_cur_thread+0xc>
    84fc:	e5930010 	ldr	r0, [r3, #16]
    8500:	e12fff1e 	bx	lr
    8504:	0000a260 	.word	0x0000a260

00008508 <rpi_fork>:
    8508:	e92d40f0 	push	{r4, r5, r6, r7, lr}
    850c:	e24dd00c 	sub	sp, sp, #12, 0
    8510:	e1a05000 	mov	r5, r0
    8514:	e1a06001 	mov	r6, r1
    8518:	e3a04000 	mov	r4, #0, 0
    851c:	e1a07004 	mov	r7, r4
    8520:	ea000005 	b	853c <rpi_fork+0x34>
    8524:	e2877001 	add	r7, r7, #1, 0
    8528:	e5912000 	ldr	r2, [r1]
    852c:	e1a03007 	mov	r3, r7
    8530:	e59f0084 	ldr	r0, [pc, #132]	; 85bc <rpi_fork+0xb4>
    8534:	eb000240 	bl	8e3c <printk>
    8538:	e2844001 	add	r4, r4, #1, 0
    853c:	e3540b01 	cmp	r4, #1024	; 0x400
    8540:	2a000004 	bcs	8558 <rpi_fork+0x50>
    8544:	e1a01104 	lsl	r1, r4, #2
    8548:	e5913000 	ldr	r3, [r1]
    854c:	e3530000 	cmp	r3, #0, 0
    8550:	0afffff8 	beq	8538 <rpi_fork+0x30>
    8554:	eafffff2 	b	8524 <rpi_fork+0x1c>
    8558:	ebffffaf 	bl	841c <th_alloc>
    855c:	e1a04000 	mov	r4, r0
    8560:	e2803a02 	add	r3, r0, #8192	; 0x2000
    8564:	e243200c 	sub	r2, r3, #12, 0
    8568:	e5802000 	str	r2, [r0]
    856c:	e503600c 	str	r6, [r3, #-12]
    8570:	e5035008 	str	r5, [r3, #-8]
    8574:	e59f3044 	ldr	r3, [pc, #68]	; 85c0 <rpi_fork+0xb8>
    8578:	e5823020 	str	r3, [r2, #32]
    857c:	e59f1040 	ldr	r1, [pc, #64]	; 85c4 <rpi_fork+0xbc>
    8580:	e59f0040 	ldr	r0, [pc, #64]	; 85c8 <rpi_fork+0xc0>
    8584:	eb00022c 	bl	8e3c <printk>
    8588:	e5941008 	ldr	r1, [r4, #8]
    858c:	e5943000 	ldr	r3, [r4]
    8590:	e58d3000 	str	r3, [sp]
    8594:	e1a03006 	mov	r3, r6
    8598:	e1a02005 	mov	r2, r5
    859c:	e59f0028 	ldr	r0, [pc, #40]	; 85cc <rpi_fork+0xc4>
    85a0:	eb000225 	bl	8e3c <printk>
    85a4:	e1a01004 	mov	r1, r4
    85a8:	e59f0020 	ldr	r0, [pc, #32]	; 85d0 <rpi_fork+0xc8>
    85ac:	ebffff1f 	bl	8230 <Q_append>
    85b0:	e1a00004 	mov	r0, r4
    85b4:	e28dd00c 	add	sp, sp, #12, 0
    85b8:	e8bd80f0 	pop	{r4, r5, r6, r7, pc}
    85bc:	000099d8 	.word	0x000099d8
    85c0:	00008218 	.word	0x00008218
    85c4:	00009d38 	.word	0x00009d38
    85c8:	00009980 	.word	0x00009980
    85cc:	00009b88 	.word	0x00009b88
    85d0:	0000a274 	.word	0x0000a274

000085d4 <rpi_exit>:
    85d4:	e92d4070 	push	{r4, r5, r6, lr}
    85d8:	e3a00000 	mov	r0, #0, 0
    85dc:	ebffff21 	bl	8268 <redzone_check>
    85e0:	e59f406c 	ldr	r4, [pc, #108]	; 8654 <rpi_exit+0x80>
    85e4:	e5945010 	ldr	r5, [r4, #16]
    85e8:	e1a01005 	mov	r1, r5
    85ec:	e1a00004 	mov	r0, r4
    85f0:	ebffff0e 	bl	8230 <Q_append>
    85f4:	e2840014 	add	r0, r4, #20, 0
    85f8:	ebffff5b 	bl	836c <Q_pop>
    85fc:	e5840010 	str	r0, [r4, #16]
    8600:	e3500000 	cmp	r0, #0, 0
    8604:	0a000008 	beq	862c <rpi_exit+0x58>
    8608:	e5901000 	ldr	r1, [r0]
    860c:	e1a00005 	mov	r0, r5
    8610:	ebfffefb 	bl	8204 <rpi_cswitch>
    8614:	e3a030e2 	mov	r3, #226, 0	; 0xe2
    8618:	e59f2038 	ldr	r2, [pc, #56]	; 8658 <rpi_exit+0x84>
    861c:	e59f1038 	ldr	r1, [pc, #56]	; 865c <rpi_exit+0x88>
    8620:	e59f0038 	ldr	r0, [pc, #56]	; 8660 <rpi_exit+0x8c>
    8624:	eb000204 	bl	8e3c <printk>
    8628:	eb000333 	bl	92fc <clean_reboot>
    862c:	e59f1024 	ldr	r1, [pc, #36]	; 8658 <rpi_exit+0x84>
    8630:	e59f002c 	ldr	r0, [pc, #44]	; 8664 <rpi_exit+0x90>
    8634:	eb000200 	bl	8e3c <printk>
    8638:	e59f0028 	ldr	r0, [pc, #40]	; 8668 <rpi_exit+0x94>
    863c:	eb0001fe 	bl	8e3c <printk>
    8640:	e5943020 	ldr	r3, [r4, #32]
    8644:	e5931000 	ldr	r1, [r3]
    8648:	e1a00005 	mov	r0, r5
    864c:	ebfffeec 	bl	8204 <rpi_cswitch>
    8650:	eaffffef 	b	8614 <rpi_exit+0x40>
    8654:	0000a260 	.word	0x0000a260
    8658:	00009d44 	.word	0x00009d44
    865c:	00009b08 	.word	0x00009b08
    8660:	00009bec 	.word	0x00009bec
    8664:	00009980 	.word	0x00009980
    8668:	00009bc0 	.word	0x00009bc0

0000866c <rpi_yield>:
    866c:	e92d4070 	push	{r4, r5, r6, lr}
    8670:	e3a04000 	mov	r4, #0, 0
    8674:	e1a05004 	mov	r5, r4
    8678:	ea000005 	b	8694 <rpi_yield+0x28>
    867c:	e2855001 	add	r5, r5, #1, 0
    8680:	e5912000 	ldr	r2, [r1]
    8684:	e1a03005 	mov	r3, r5
    8688:	e59f0080 	ldr	r0, [pc, #128]	; 8710 <rpi_yield+0xa4>
    868c:	eb0001ea 	bl	8e3c <printk>
    8690:	e2844001 	add	r4, r4, #1, 0
    8694:	e3540b01 	cmp	r4, #1024	; 0x400
    8698:	2a000004 	bcs	86b0 <rpi_yield+0x44>
    869c:	e1a01104 	lsl	r1, r4, #2
    86a0:	e5913000 	ldr	r3, [r1]
    86a4:	e3530000 	cmp	r3, #0, 0
    86a8:	0afffff8 	beq	8690 <rpi_yield+0x24>
    86ac:	eafffff2 	b	867c <rpi_yield+0x10>
    86b0:	e59f405c 	ldr	r4, [pc, #92]	; 8714 <rpi_yield+0xa8>
    86b4:	e2846014 	add	r6, r4, #20, 0
    86b8:	e5941010 	ldr	r1, [r4, #16]
    86bc:	e1a00006 	mov	r0, r6
    86c0:	ebfffeda 	bl	8230 <Q_append>
    86c4:	e5945010 	ldr	r5, [r4, #16]
    86c8:	e1a00006 	mov	r0, r6
    86cc:	ebffff26 	bl	836c <Q_pop>
    86d0:	e5840010 	str	r0, [r4, #16]
    86d4:	e1500005 	cmp	r0, r5
    86d8:	08bd8070 	popeq	{r4, r5, r6, pc}
    86dc:	e59f1034 	ldr	r1, [pc, #52]	; 8718 <rpi_yield+0xac>
    86e0:	e59f0034 	ldr	r0, [pc, #52]	; 871c <rpi_yield+0xb0>
    86e4:	eb0001d4 	bl	8e3c <printk>
    86e8:	e5943010 	ldr	r3, [r4, #16]
    86ec:	e5932008 	ldr	r2, [r3, #8]
    86f0:	e5951008 	ldr	r1, [r5, #8]
    86f4:	e59f0024 	ldr	r0, [pc, #36]	; 8720 <rpi_yield+0xb4>
    86f8:	eb0001cf 	bl	8e3c <printk>
    86fc:	e5943010 	ldr	r3, [r4, #16]
    8700:	e5931000 	ldr	r1, [r3]
    8704:	e1a00005 	mov	r0, r5
    8708:	ebfffebd 	bl	8204 <rpi_cswitch>
    870c:	e8bd8070 	pop	{r4, r5, r6, pc}
    8710:	000099d8 	.word	0x000099d8
    8714:	0000a260 	.word	0x0000a260
    8718:	00009d50 	.word	0x00009d50
    871c:	00009980 	.word	0x00009980
    8720:	00009c0c 	.word	0x00009c0c

00008724 <rpi_thread_start>:
    8724:	e92d4030 	push	{r4, r5, lr}
    8728:	e24dd00c 	sub	sp, sp, #12, 0
    872c:	e3a02a01 	mov	r2, #4096	; 0x1000
    8730:	e3a01000 	mov	r1, #0, 0
    8734:	e1a00001 	mov	r0, r1
    8738:	eb000197 	bl	8d9c <memset>
    873c:	e3a04000 	mov	r4, #0, 0
    8740:	e1a05004 	mov	r5, r4
    8744:	ea000005 	b	8760 <rpi_thread_start+0x3c>
    8748:	e2855001 	add	r5, r5, #1, 0
    874c:	e5912000 	ldr	r2, [r1]
    8750:	e1a03005 	mov	r3, r5
    8754:	e59f010c 	ldr	r0, [pc, #268]	; 8868 <rpi_thread_start+0x144>
    8758:	eb0001b7 	bl	8e3c <printk>
    875c:	e2844001 	add	r4, r4, #1, 0
    8760:	e3540b01 	cmp	r4, #1024	; 0x400
    8764:	2a000004 	bcs	877c <rpi_thread_start+0x58>
    8768:	e1a01104 	lsl	r1, r4, #2
    876c:	e5913000 	ldr	r3, [r1]
    8770:	e3530000 	cmp	r3, #0, 0
    8774:	0afffff8 	beq	875c <rpi_thread_start+0x38>
    8778:	eafffff2 	b	8748 <rpi_thread_start+0x24>
    877c:	e3550000 	cmp	r5, #0, 0
    8780:	1a000018 	bne	87e8 <rpi_thread_start+0xc4>
    8784:	e59f10e0 	ldr	r1, [pc, #224]	; 886c <rpi_thread_start+0x148>
    8788:	e59f00e0 	ldr	r0, [pc, #224]	; 8870 <rpi_thread_start+0x14c>
    878c:	eb0001aa 	bl	8e3c <printk>
    8790:	e59f00dc 	ldr	r0, [pc, #220]	; 8874 <rpi_thread_start+0x150>
    8794:	eb0001a8 	bl	8e3c <printk>
    8798:	e59f00d8 	ldr	r0, [pc, #216]	; 8878 <rpi_thread_start+0x154>
    879c:	ebfffecb 	bl	82d0 <Q_empty>
    87a0:	e3500000 	cmp	r0, #0, 0
    87a4:	1a00000c 	bne	87dc <rpi_thread_start+0xb8>
    87a8:	e59f30cc 	ldr	r3, [pc, #204]	; 887c <rpi_thread_start+0x158>
    87ac:	e5933020 	ldr	r3, [r3, #32]
    87b0:	e3530000 	cmp	r3, #0, 0
    87b4:	0a000013 	beq	8808 <rpi_thread_start+0xe4>
    87b8:	e59f40bc 	ldr	r4, [pc, #188]	; 887c <rpi_thread_start+0x158>
    87bc:	e2840014 	add	r0, r4, #20, 0
    87c0:	ebfffee9 	bl	836c <Q_pop>
    87c4:	e5840010 	str	r0, [r4, #16]
    87c8:	e3500000 	cmp	r0, #0, 0
    87cc:	0a000002 	beq	87dc <rpi_thread_start+0xb8>
    87d0:	e5901000 	ldr	r1, [r0]
    87d4:	e5940020 	ldr	r0, [r4, #32]
    87d8:	ebfffe89 	bl	8204 <rpi_cswitch>
    87dc:	e3a04000 	mov	r4, #0, 0
    87e0:	e1a05004 	mov	r5, r4
    87e4:	ea000011 	b	8830 <rpi_thread_start+0x10c>
    87e8:	e59f3090 	ldr	r3, [pc, #144]	; 8880 <rpi_thread_start+0x15c>
    87ec:	e58d3000 	str	r3, [sp]
    87f0:	e3a03019 	mov	r3, #25, 0
    87f4:	e59f2088 	ldr	r2, [pc, #136]	; 8884 <rpi_thread_start+0x160>
    87f8:	e59f1088 	ldr	r1, [pc, #136]	; 8888 <rpi_thread_start+0x164>
    87fc:	e59f0088 	ldr	r0, [pc, #136]	; 888c <rpi_thread_start+0x168>
    8800:	eb00018d 	bl	8e3c <printk>
    8804:	eb0002bc 	bl	92fc <clean_reboot>
    8808:	ebffff03 	bl	841c <th_alloc>
    880c:	e59f3068 	ldr	r3, [pc, #104]	; 887c <rpi_thread_start+0x158>
    8810:	e5830020 	str	r0, [r3, #32]
    8814:	eaffffe7 	b	87b8 <rpi_thread_start+0x94>
    8818:	e2855001 	add	r5, r5, #1, 0
    881c:	e5912000 	ldr	r2, [r1]
    8820:	e1a03005 	mov	r3, r5
    8824:	e59f003c 	ldr	r0, [pc, #60]	; 8868 <rpi_thread_start+0x144>
    8828:	eb000183 	bl	8e3c <printk>
    882c:	e2844001 	add	r4, r4, #1, 0
    8830:	e3540b01 	cmp	r4, #1024	; 0x400
    8834:	2a000004 	bcs	884c <rpi_thread_start+0x128>
    8838:	e1a01104 	lsl	r1, r4, #2
    883c:	e5913000 	ldr	r3, [r1]
    8840:	e3530000 	cmp	r3, #0, 0
    8844:	0afffff8 	beq	882c <rpi_thread_start+0x108>
    8848:	eafffff2 	b	8818 <rpi_thread_start+0xf4>
    884c:	e59f1018 	ldr	r1, [pc, #24]	; 886c <rpi_thread_start+0x148>
    8850:	e59f0018 	ldr	r0, [pc, #24]	; 8870 <rpi_thread_start+0x14c>
    8854:	eb000178 	bl	8e3c <printk>
    8858:	e59f0030 	ldr	r0, [pc, #48]	; 8890 <rpi_thread_start+0x16c>
    885c:	eb000176 	bl	8e3c <printk>
    8860:	e28dd00c 	add	sp, sp, #12, 0
    8864:	e8bd8030 	pop	{r4, r5, pc}
    8868:	000099d8 	.word	0x000099d8
    886c:	00009d6c 	.word	0x00009d6c
    8870:	00009980 	.word	0x00009980
    8874:	00009c44 	.word	0x00009c44
    8878:	0000a274 	.word	0x0000a274
    887c:	0000a260 	.word	0x0000a260
    8880:	00009c30 	.word	0x00009c30
    8884:	00009d5c 	.word	0x00009d5c
    8888:	0000a1f4 	.word	0x0000a1f4
    888c:	00009a44 	.word	0x00009a44
    8890:	00009c58 	.word	0x00009c58

00008894 <rpi_print_regs>:
    8894:	e92d4030 	push	{r4, r5, lr}
    8898:	e24dd00c 	sub	sp, sp, #12, 0
    889c:	e1a05000 	mov	r5, r0
    88a0:	e59f40c8 	ldr	r4, [pc, #200]	; 8970 <rpi_print_regs+0xdc>
    88a4:	e5943010 	ldr	r3, [r4, #16]
    88a8:	e5931008 	ldr	r1, [r3, #8]
    88ac:	e59f00c0 	ldr	r0, [pc, #192]	; 8974 <rpi_print_regs+0xe0>
    88b0:	eb000161 	bl	8e3c <printk>
    88b4:	e1a01005 	mov	r1, r5
    88b8:	e59f00b8 	ldr	r0, [pc, #184]	; 8978 <rpi_print_regs+0xe4>
    88bc:	eb00015e 	bl	8e3c <printk>
    88c0:	e5941010 	ldr	r1, [r4, #16]
    88c4:	e2811a02 	add	r1, r1, #8192	; 0x2000
    88c8:	e2811018 	add	r1, r1, #24, 0
    88cc:	e59f00a8 	ldr	r0, [pc, #168]	; 897c <rpi_print_regs+0xe8>
    88d0:	eb000159 	bl	8e3c <printk>
    88d4:	e5943010 	ldr	r3, [r4, #16]
    88d8:	e2832a02 	add	r2, r3, #8192	; 0x2000
    88dc:	e2822018 	add	r2, r2, #24, 0
    88e0:	e1520005 	cmp	r2, r5
    88e4:	9a000004 	bls	88fc <rpi_print_regs+0x68>
    88e8:	e2833018 	add	r3, r3, #24, 0
    88ec:	e1530005 	cmp	r3, r5
    88f0:	8a000009 	bhi	891c <rpi_print_regs+0x88>
    88f4:	e3a04000 	mov	r4, #0, 0
    88f8:	ea000015 	b	8954 <rpi_print_regs+0xc0>
    88fc:	e59f307c 	ldr	r3, [pc, #124]	; 8980 <rpi_print_regs+0xec>
    8900:	e58d3000 	str	r3, [sp]
    8904:	e59f3078 	ldr	r3, [pc, #120]	; 8984 <rpi_print_regs+0xf0>
    8908:	e59f2078 	ldr	r2, [pc, #120]	; 8988 <rpi_print_regs+0xf4>
    890c:	e59f1078 	ldr	r1, [pc, #120]	; 898c <rpi_print_regs+0xf8>
    8910:	e59f0078 	ldr	r0, [pc, #120]	; 8990 <rpi_print_regs+0xfc>
    8914:	eb000148 	bl	8e3c <printk>
    8918:	eb000277 	bl	92fc <clean_reboot>
    891c:	e59f3070 	ldr	r3, [pc, #112]	; 8994 <rpi_print_regs+0x100>
    8920:	e58d3000 	str	r3, [sp]
    8924:	e3a03e15 	mov	r3, #336	; 0x150
    8928:	e59f2058 	ldr	r2, [pc, #88]	; 8988 <rpi_print_regs+0xf4>
    892c:	e59f1058 	ldr	r1, [pc, #88]	; 898c <rpi_print_regs+0xf8>
    8930:	e59f0058 	ldr	r0, [pc, #88]	; 8990 <rpi_print_regs+0xfc>
    8934:	eb000140 	bl	8e3c <printk>
    8938:	eb00026f 	bl	92fc <clean_reboot>
    893c:	e3a0200e 	mov	r2, #14, 0
    8940:	e7953104 	ldr	r3, [r5, r4, lsl #2]
    8944:	e1a01004 	mov	r1, r4
    8948:	e59f0048 	ldr	r0, [pc, #72]	; 8998 <rpi_print_regs+0x104>
    894c:	eb00013a 	bl	8e3c <printk>
    8950:	e2844001 	add	r4, r4, #1, 0
    8954:	e3540008 	cmp	r4, #8, 0
    8958:	8a000003 	bhi	896c <rpi_print_regs+0xd8>
    895c:	e3540008 	cmp	r4, #8, 0
    8960:	0afffff5 	beq	893c <rpi_print_regs+0xa8>
    8964:	e2842004 	add	r2, r4, #4, 0
    8968:	eafffff4 	b	8940 <rpi_print_regs+0xac>
    896c:	eb000262 	bl	92fc <clean_reboot>
    8970:	0000a260 	.word	0x0000a260
    8974:	00009c7c 	.word	0x00009c7c
    8978:	00009c8c 	.word	0x00009c8c
    897c:	00009c94 	.word	0x00009c94
    8980:	00009ca0 	.word	0x00009ca0
    8984:	0000014f 	.word	0x0000014f
    8988:	00009d80 	.word	0x00009d80
    898c:	00009b08 	.word	0x00009b08
    8990:	00009a44 	.word	0x00009a44
    8994:	00009ccc 	.word	0x00009ccc
    8998:	00009ce8 	.word	0x00009ce8

0000899c <rpi_sleep>:
    899c:	e92d4010 	push	{r4, lr}
    89a0:	e1a04000 	mov	r4, r0
    89a4:	eb0002ad 	bl	9460 <timer_get_usec>
    89a8:	e59f3028 	ldr	r3, [pc, #40]	; 89d8 <rpi_sleep+0x3c>
    89ac:	e5932010 	ldr	r2, [r3, #16]
    89b0:	e5921008 	ldr	r1, [r2, #8]
    89b4:	e0800004 	add	r0, r0, r4
    89b8:	e59f301c 	ldr	r3, [pc, #28]	; 89dc <rpi_sleep+0x40>
    89bc:	e7830101 	str	r0, [r3, r1, lsl #2]
    89c0:	e5921008 	ldr	r1, [r2, #8]
    89c4:	e7932101 	ldr	r2, [r3, r1, lsl #2]
    89c8:	e59f0010 	ldr	r0, [pc, #16]	; 89e0 <rpi_sleep+0x44>
    89cc:	eb00011a 	bl	8e3c <printk>
    89d0:	ebffff25 	bl	866c <rpi_yield>
    89d4:	e8bd8010 	pop	{r4, pc}
    89d8:	0000a260 	.word	0x0000a260
    89dc:	0000a288 	.word	0x0000a288
    89e0:	00009cf8 	.word	0x00009cf8

000089e4 <kmalloc_heap_end>:
    89e4:	e59f3004 	ldr	r3, [pc, #4]	; 89f0 <kmalloc_heap_end+0xc>
    89e8:	e5930000 	ldr	r0, [r3]
    89ec:	e12fff1e 	bx	lr
    89f0:	0000a250 	.word	0x0000a250

000089f4 <kmalloc_heap_start>:
    89f4:	e59f3004 	ldr	r3, [pc, #4]	; 8a00 <kmalloc_heap_start+0xc>
    89f8:	e5930004 	ldr	r0, [r3, #4]
    89fc:	e12fff1e 	bx	lr
    8a00:	0000a250 	.word	0x0000a250

00008a04 <kmalloc_heap_ptr>:
    8a04:	e59f3004 	ldr	r3, [pc, #4]	; 8a10 <kmalloc_heap_ptr+0xc>
    8a08:	e5930008 	ldr	r0, [r3, #8]
    8a0c:	e12fff1e 	bx	lr
    8a10:	0000a250 	.word	0x0000a250

00008a14 <kmalloc_init_set_start>:
    8a14:	e52de004 	push	{lr}		; (str lr, [sp, #-4]!)
    8a18:	e24dd00c 	sub	sp, sp, #12, 0
    8a1c:	e59f30a8 	ldr	r3, [pc, #168]	; 8acc <kmalloc_init_set_start+0xb8>
    8a20:	e5933000 	ldr	r3, [r3]
    8a24:	e3530000 	cmp	r3, #0, 0
    8a28:	1a00000f 	bne	8a6c <kmalloc_init_set_start+0x58>
    8a2c:	e59f3098 	ldr	r3, [pc, #152]	; 8acc <kmalloc_init_set_start+0xb8>
    8a30:	e3a02001 	mov	r2, #1, 0
    8a34:	e5832000 	str	r2, [r3]
    8a38:	e3510000 	cmp	r1, #0, 0
    8a3c:	0a000010 	beq	8a84 <kmalloc_init_set_start+0x70>
    8a40:	e59f3088 	ldr	r3, [pc, #136]	; 8ad0 <kmalloc_init_set_start+0xbc>
    8a44:	e5933008 	ldr	r3, [r3, #8]
    8a48:	e1530000 	cmp	r3, r0
    8a4c:	8a000014 	bhi	8aa4 <kmalloc_init_set_start+0x90>
    8a50:	e59f3078 	ldr	r3, [pc, #120]	; 8ad0 <kmalloc_init_set_start+0xbc>
    8a54:	e5830008 	str	r0, [r3, #8]
    8a58:	e5830004 	str	r0, [r3, #4]
    8a5c:	e0800001 	add	r0, r0, r1
    8a60:	e5830000 	str	r0, [r3]
    8a64:	e28dd00c 	add	sp, sp, #12, 0
    8a68:	e49df004 	pop	{pc}		; (ldr pc, [sp], #4)
    8a6c:	e3a03031 	mov	r3, #49, 0	; 0x31
    8a70:	e59f205c 	ldr	r2, [pc, #92]	; 8ad4 <kmalloc_init_set_start+0xc0>
    8a74:	e59f105c 	ldr	r1, [pc, #92]	; 8ad8 <kmalloc_init_set_start+0xc4>
    8a78:	e59f005c 	ldr	r0, [pc, #92]	; 8adc <kmalloc_init_set_start+0xc8>
    8a7c:	eb0000ee 	bl	8e3c <printk>
    8a80:	eb00021d 	bl	92fc <clean_reboot>
    8a84:	e59f3054 	ldr	r3, [pc, #84]	; 8ae0 <kmalloc_init_set_start+0xcc>
    8a88:	e58d3000 	str	r3, [sp]
    8a8c:	e3a03036 	mov	r3, #54, 0	; 0x36
    8a90:	e59f203c 	ldr	r2, [pc, #60]	; 8ad4 <kmalloc_init_set_start+0xc0>
    8a94:	e59f103c 	ldr	r1, [pc, #60]	; 8ad8 <kmalloc_init_set_start+0xc4>
    8a98:	e59f0044 	ldr	r0, [pc, #68]	; 8ae4 <kmalloc_init_set_start+0xd0>
    8a9c:	eb0000e6 	bl	8e3c <printk>
    8aa0:	eb000215 	bl	92fc <clean_reboot>
    8aa4:	e59f3024 	ldr	r3, [pc, #36]	; 8ad0 <kmalloc_init_set_start+0xbc>
    8aa8:	e5933000 	ldr	r3, [r3]
    8aac:	e58d3004 	str	r3, [sp, #4]
    8ab0:	e58d0000 	str	r0, [sp]
    8ab4:	e3a0303a 	mov	r3, #58, 0	; 0x3a
    8ab8:	e59f2014 	ldr	r2, [pc, #20]	; 8ad4 <kmalloc_init_set_start+0xc0>
    8abc:	e59f1014 	ldr	r1, [pc, #20]	; 8ad8 <kmalloc_init_set_start+0xc4>
    8ac0:	e59f0020 	ldr	r0, [pc, #32]	; 8ae8 <kmalloc_init_set_start+0xd4>
    8ac4:	eb0000dc 	bl	8e3c <printk>
    8ac8:	eb00020b 	bl	92fc <clean_reboot>
    8acc:	0000a284 	.word	0x0000a284
    8ad0:	0000a250 	.word	0x0000a250
    8ad4:	00009f64 	.word	0x00009f64
    8ad8:	00009d90 	.word	0x00009d90
    8adc:	00009d9c 	.word	0x00009d9c
    8ae0:	00009dd0 	.word	0x00009dd0
    8ae4:	00009a44 	.word	0x00009a44
    8ae8:	00009ddc 	.word	0x00009ddc

00008aec <kmalloc_notzero>:
    8aec:	e52de004 	push	{lr}		; (str lr, [sp, #-4]!)
    8af0:	e24dd00c 	sub	sp, sp, #12, 0
    8af4:	e3500000 	cmp	r0, #0, 0
    8af8:	0a00000d 	beq	8b34 <kmalloc_notzero+0x48>
    8afc:	e2800007 	add	r0, r0, #7, 0
    8b00:	e3c03007 	bic	r3, r0, #7, 0
    8b04:	e59f208c 	ldr	r2, [pc, #140]	; 8b98 <kmalloc_notzero+0xac>
    8b08:	e5920008 	ldr	r0, [r2, #8]
    8b0c:	e3100007 	tst	r0, #7, 0
    8b10:	1a00000f 	bne	8b54 <kmalloc_notzero+0x68>
    8b14:	e0802003 	add	r2, r0, r3
    8b18:	e59f1078 	ldr	r1, [pc, #120]	; 8b98 <kmalloc_notzero+0xac>
    8b1c:	e5812008 	str	r2, [r1, #8]
    8b20:	e5911000 	ldr	r1, [r1]
    8b24:	e1520001 	cmp	r2, r1
    8b28:	8a000011 	bhi	8b74 <kmalloc_notzero+0x88>
    8b2c:	e28dd00c 	add	sp, sp, #12, 0
    8b30:	e49df004 	pop	{pc}		; (ldr pc, [sp], #4)
    8b34:	e59f3060 	ldr	r3, [pc, #96]	; 8b9c <kmalloc_notzero+0xb0>
    8b38:	e58d3000 	str	r3, [sp]
    8b3c:	e3a03053 	mov	r3, #83, 0	; 0x53
    8b40:	e59f2058 	ldr	r2, [pc, #88]	; 8ba0 <kmalloc_notzero+0xb4>
    8b44:	e59f1058 	ldr	r1, [pc, #88]	; 8ba4 <kmalloc_notzero+0xb8>
    8b48:	e59f0058 	ldr	r0, [pc, #88]	; 8ba8 <kmalloc_notzero+0xbc>
    8b4c:	eb0000ba 	bl	8e3c <printk>
    8b50:	eb0001e9 	bl	92fc <clean_reboot>
    8b54:	e59f3050 	ldr	r3, [pc, #80]	; 8bac <kmalloc_notzero+0xc0>
    8b58:	e58d3000 	str	r3, [sp]
    8b5c:	e3a03056 	mov	r3, #86, 0	; 0x56
    8b60:	e59f2038 	ldr	r2, [pc, #56]	; 8ba0 <kmalloc_notzero+0xb4>
    8b64:	e59f1038 	ldr	r1, [pc, #56]	; 8ba4 <kmalloc_notzero+0xb8>
    8b68:	e59f0038 	ldr	r0, [pc, #56]	; 8ba8 <kmalloc_notzero+0xbc>
    8b6c:	eb0000b2 	bl	8e3c <printk>
    8b70:	eb0001e1 	bl	92fc <clean_reboot>
    8b74:	e0422001 	sub	r2, r2, r1
    8b78:	e58d2004 	str	r2, [sp, #4]
    8b7c:	e58d3000 	str	r3, [sp]
    8b80:	e3a0305b 	mov	r3, #91, 0	; 0x5b
    8b84:	e59f2014 	ldr	r2, [pc, #20]	; 8ba0 <kmalloc_notzero+0xb4>
    8b88:	e59f1014 	ldr	r1, [pc, #20]	; 8ba4 <kmalloc_notzero+0xb8>
    8b8c:	e59f001c 	ldr	r0, [pc, #28]	; 8bb0 <kmalloc_notzero+0xc4>
    8b90:	eb0000a9 	bl	8e3c <printk>
    8b94:	eb0001d8 	bl	92fc <clean_reboot>
    8b98:	0000a250 	.word	0x0000a250
    8b9c:	00009dd4 	.word	0x00009dd4
    8ba0:	00009f7c 	.word	0x00009f7c
    8ba4:	00009d90 	.word	0x00009d90
    8ba8:	00009a44 	.word	0x00009a44
    8bac:	00009e20 	.word	0x00009e20
    8bb0:	00009e38 	.word	0x00009e38

00008bb4 <kmalloc>:
    8bb4:	e92d4030 	push	{r4, r5, lr}
    8bb8:	e24dd00c 	sub	sp, sp, #12, 0
    8bbc:	e2504000 	subs	r4, r0, #0, 0
    8bc0:	0a000008 	beq	8be8 <kmalloc+0x34>
    8bc4:	e1a00004 	mov	r0, r4
    8bc8:	ebffffc7 	bl	8aec <kmalloc_notzero>
    8bcc:	e1a05000 	mov	r5, r0
    8bd0:	e1a02004 	mov	r2, r4
    8bd4:	e3a01000 	mov	r1, #0, 0
    8bd8:	eb00006f 	bl	8d9c <memset>
    8bdc:	e1a00005 	mov	r0, r5
    8be0:	e28dd00c 	add	sp, sp, #12, 0
    8be4:	e8bd8030 	pop	{r4, r5, pc}
    8be8:	e59f3018 	ldr	r3, [pc, #24]	; 8c08 <kmalloc+0x54>
    8bec:	e58d3000 	str	r3, [sp]
    8bf0:	e3a03062 	mov	r3, #98, 0	; 0x62
    8bf4:	e59f2010 	ldr	r2, [pc, #16]	; 8c0c <kmalloc+0x58>
    8bf8:	e59f1010 	ldr	r1, [pc, #16]	; 8c10 <kmalloc+0x5c>
    8bfc:	e59f0010 	ldr	r0, [pc, #16]	; 8c14 <kmalloc+0x60>
    8c00:	eb00008d 	bl	8e3c <printk>
    8c04:	eb0001bc 	bl	92fc <clean_reboot>
    8c08:	00009dd4 	.word	0x00009dd4
    8c0c:	00009f8c 	.word	0x00009f8c
    8c10:	00009d90 	.word	0x00009d90
    8c14:	00009a44 	.word	0x00009a44

00008c18 <kmalloc_aligned>:
    8c18:	e52de004 	push	{lr}		; (str lr, [sp, #-4]!)
    8c1c:	e24dd00c 	sub	sp, sp, #12, 0
    8c20:	e3500000 	cmp	r0, #0, 0
    8c24:	0a000014 	beq	8c7c <kmalloc_aligned+0x64>
    8c28:	e2613000 	rsb	r3, r1, #0, 0
    8c2c:	e1d13003 	bics	r3, r1, r3
    8c30:	1a000019 	bne	8c9c <kmalloc_aligned+0x84>
    8c34:	e3510008 	cmp	r1, #8, 0
    8c38:	33a01008 	movcc	r1, #8, 0
    8c3c:	e59f30b8 	ldr	r3, [pc, #184]	; 8cfc <kmalloc_aligned+0xe4>
    8c40:	e5932008 	ldr	r2, [r3, #8]
    8c44:	e2613000 	rsb	r3, r1, #0, 0
    8c48:	e1d1c003 	bics	ip, r1, r3
    8c4c:	1a00001a 	bne	8cbc <kmalloc_aligned+0xa4>
    8c50:	e0822001 	add	r2, r2, r1
    8c54:	e2422001 	sub	r2, r2, #1, 0
    8c58:	e0033002 	and	r3, r3, r2
    8c5c:	e2411001 	sub	r1, r1, #1, 0
    8c60:	e1110003 	tst	r1, r3
    8c64:	1a00001c 	bne	8cdc <kmalloc_aligned+0xc4>
    8c68:	e59f208c 	ldr	r2, [pc, #140]	; 8cfc <kmalloc_aligned+0xe4>
    8c6c:	e5823008 	str	r3, [r2, #8]
    8c70:	ebffffcf 	bl	8bb4 <kmalloc>
    8c74:	e28dd00c 	add	sp, sp, #12, 0
    8c78:	e49df004 	pop	{pc}		; (ldr pc, [sp], #4)
    8c7c:	e59f307c 	ldr	r3, [pc, #124]	; 8d00 <kmalloc_aligned+0xe8>
    8c80:	e58d3000 	str	r3, [sp]
    8c84:	e3a0306d 	mov	r3, #109, 0	; 0x6d
    8c88:	e59f2074 	ldr	r2, [pc, #116]	; 8d04 <kmalloc_aligned+0xec>
    8c8c:	e59f1074 	ldr	r1, [pc, #116]	; 8d08 <kmalloc_aligned+0xf0>
    8c90:	e59f0074 	ldr	r0, [pc, #116]	; 8d0c <kmalloc_aligned+0xf4>
    8c94:	eb000068 	bl	8e3c <printk>
    8c98:	eb000197 	bl	92fc <clean_reboot>
    8c9c:	e59f306c 	ldr	r3, [pc, #108]	; 8d10 <kmalloc_aligned+0xf8>
    8ca0:	e58d3000 	str	r3, [sp]
    8ca4:	e3a0306e 	mov	r3, #110, 0	; 0x6e
    8ca8:	e59f2054 	ldr	r2, [pc, #84]	; 8d04 <kmalloc_aligned+0xec>
    8cac:	e59f1054 	ldr	r1, [pc, #84]	; 8d08 <kmalloc_aligned+0xf0>
    8cb0:	e59f005c 	ldr	r0, [pc, #92]	; 8d14 <kmalloc_aligned+0xfc>
    8cb4:	eb000060 	bl	8e3c <printk>
    8cb8:	eb00018f 	bl	92fc <clean_reboot>
    8cbc:	e59f3054 	ldr	r3, [pc, #84]	; 8d18 <kmalloc_aligned+0x100>
    8cc0:	e58d3000 	str	r3, [sp]
    8cc4:	e3a03011 	mov	r3, #17, 0
    8cc8:	e59f204c 	ldr	r2, [pc, #76]	; 8d1c <kmalloc_aligned+0x104>
    8ccc:	e59f1034 	ldr	r1, [pc, #52]	; 8d08 <kmalloc_aligned+0xf0>
    8cd0:	e59f0034 	ldr	r0, [pc, #52]	; 8d0c <kmalloc_aligned+0xf4>
    8cd4:	eb000058 	bl	8e3c <printk>
    8cd8:	eb000187 	bl	92fc <clean_reboot>
    8cdc:	e59f303c 	ldr	r3, [pc, #60]	; 8d20 <kmalloc_aligned+0x108>
    8ce0:	e58d3000 	str	r3, [sp]
    8ce4:	e3a03076 	mov	r3, #118, 0	; 0x76
    8ce8:	e59f2014 	ldr	r2, [pc, #20]	; 8d04 <kmalloc_aligned+0xec>
    8cec:	e59f1014 	ldr	r1, [pc, #20]	; 8d08 <kmalloc_aligned+0xf0>
    8cf0:	e59f002c 	ldr	r0, [pc, #44]	; 8d24 <kmalloc_aligned+0x10c>
    8cf4:	eb000050 	bl	8e3c <printk>
    8cf8:	eb00017f 	bl	92fc <clean_reboot>
    8cfc:	0000a250 	.word	0x0000a250
    8d00:	00009dd4 	.word	0x00009dd4
    8d04:	00009f94 	.word	0x00009f94
    8d08:	00009d90 	.word	0x00009d90
    8d0c:	00009a44 	.word	0x00009a44
    8d10:	00009ec0 	.word	0x00009ec0
    8d14:	00009e80 	.word	0x00009e80
    8d18:	00009ed4 	.word	0x00009ed4
    8d1c:	00009fa4 	.word	0x00009fa4
    8d20:	00009f18 	.word	0x00009f18
    8d24:	00009ee0 	.word	0x00009ee0

00008d28 <kfree_all>:
    8d28:	e59f3008 	ldr	r3, [pc, #8]	; 8d38 <kfree_all+0x10>
    8d2c:	e5932004 	ldr	r2, [r3, #4]
    8d30:	e5832008 	str	r2, [r3, #8]
    8d34:	e12fff1e 	bx	lr
    8d38:	0000a250 	.word	0x0000a250

00008d3c <kfree_pop>:
    8d3c:	e59f3048 	ldr	r3, [pc, #72]	; 8d8c <kfree_pop+0x50>
    8d40:	e5933004 	ldr	r3, [r3, #4]
    8d44:	e1530000 	cmp	r3, r0
    8d48:	8a000006 	bhi	8d68 <kfree_pop+0x2c>
    8d4c:	e59f3038 	ldr	r3, [pc, #56]	; 8d8c <kfree_pop+0x50>
    8d50:	e5933000 	ldr	r3, [r3]
    8d54:	e1530000 	cmp	r3, r0
    8d58:	3a000002 	bcc	8d68 <kfree_pop+0x2c>
    8d5c:	e59f3028 	ldr	r3, [pc, #40]	; 8d8c <kfree_pop+0x50>
    8d60:	e5830008 	str	r0, [r3, #8]
    8d64:	e12fff1e 	bx	lr
    8d68:	e52de004 	push	{lr}		; (str lr, [sp, #-4]!)
    8d6c:	e24dd00c 	sub	sp, sp, #12, 0
    8d70:	e58d0000 	str	r0, [sp]
    8d74:	e3a03085 	mov	r3, #133, 0	; 0x85
    8d78:	e59f2010 	ldr	r2, [pc, #16]	; 8d90 <kfree_pop+0x54>
    8d7c:	e59f1010 	ldr	r1, [pc, #16]	; 8d94 <kfree_pop+0x58>
    8d80:	e59f0010 	ldr	r0, [pc, #16]	; 8d98 <kfree_pop+0x5c>
    8d84:	eb00002c 	bl	8e3c <printk>
    8d88:	eb00015b 	bl	92fc <clean_reboot>
    8d8c:	0000a250 	.word	0x0000a250
    8d90:	00009fac 	.word	0x00009fac
    8d94:	00009d90 	.word	0x00009d90
    8d98:	00009f34 	.word	0x00009f34

00008d9c <memset>:
    8d9c:	e3520000 	cmp	r2, #0, 0
    8da0:	012fff1e 	bxeq	lr
    8da4:	e3510000 	cmp	r1, #0, 0
    8da8:	1a000007 	bne	8dcc <memset+0x30>
    8dac:	e3100007 	tst	r0, #7, 0
    8db0:	1a000001 	bne	8dbc <memset+0x20>
    8db4:	e3120007 	tst	r2, #7, 0
    8db8:	0a000011 	beq	8e04 <memset+0x68>
    8dbc:	e3100003 	tst	r0, #3, 0
    8dc0:	1a000001 	bne	8dcc <memset+0x30>
    8dc4:	e3120003 	tst	r2, #3, 0
    8dc8:	0a000001 	beq	8dd4 <memset+0x38>
    8dcc:	e0802002 	add	r2, r0, r2
    8dd0:	ea000008 	b	8df8 <memset+0x5c>
    8dd4:	e1a02122 	lsr	r2, r2, #2
    8dd8:	ea000001 	b	8de4 <memset+0x48>
    8ddc:	e4801004 	str	r1, [r0], #4
    8de0:	e1a02003 	mov	r2, r3
    8de4:	e2423001 	sub	r3, r2, #1, 0
    8de8:	e3520000 	cmp	r2, #0, 0
    8dec:	1afffffa 	bne	8ddc <memset+0x40>
    8df0:	e12fff1e 	bx	lr
    8df4:	e4c01001 	strb	r1, [r0], #1
    8df8:	e1500002 	cmp	r0, r2
    8dfc:	3afffffc 	bcc	8df4 <memset+0x58>
    8e00:	e12fff1e 	bx	lr
    8e04:	e1a021a2 	lsr	r2, r2, #3
    8e08:	e2423001 	sub	r3, r2, #1, 0
    8e0c:	e3520000 	cmp	r2, #0, 0
    8e10:	012fff1e 	bxeq	lr
    8e14:	e92d0030 	push	{r4, r5}
    8e18:	e1a04001 	mov	r4, r1
    8e1c:	e1a05fc1 	asr	r5, r1, #31
    8e20:	e0c040f8 	strd	r4, [r0], #8
    8e24:	e1a02003 	mov	r2, r3
    8e28:	e2433001 	sub	r3, r3, #1, 0
    8e2c:	e3520000 	cmp	r2, #0, 0
    8e30:	1afffff8 	bne	8e18 <memset+0x7c>
    8e34:	e8bd0030 	pop	{r4, r5}
    8e38:	e12fff1e 	bx	lr

00008e3c <printk>:
    8e3c:	e92d000f 	push	{r0, r1, r2, r3}
    8e40:	e52de004 	push	{lr}		; (str lr, [sp, #-4]!)
    8e44:	e24dd00c 	sub	sp, sp, #12, 0
    8e48:	e28d1014 	add	r1, sp, #20, 0
    8e4c:	e58d1004 	str	r1, [sp, #4]
    8e50:	e59d0010 	ldr	r0, [sp, #16]
    8e54:	eb000047 	bl	8f78 <vprintk>
    8e58:	e28dd00c 	add	sp, sp, #12, 0
    8e5c:	e49de004 	pop	{lr}		; (ldr lr, [sp], #4)
    8e60:	e28dd010 	add	sp, sp, #16, 0
    8e64:	e12fff1e 	bx	lr

00008e68 <emit_val>:
    8e68:	e92d4010 	push	{r4, lr}
    8e6c:	e24dd030 	sub	sp, sp, #48, 0	; 0x30
    8e70:	e350000a 	cmp	r0, #10, 0
    8e74:	0a000014 	beq	8ecc <emit_val+0x64>
    8e78:	e3500010 	cmp	r0, #16, 0
    8e7c:	0a000022 	beq	8f0c <emit_val+0xa4>
    8e80:	e3500002 	cmp	r0, #2, 0
    8e84:	0a000006 	beq	8ea4 <emit_val+0x3c>
    8e88:	e58d0000 	str	r0, [sp]
    8e8c:	e3a0301b 	mov	r3, #27, 0
    8e90:	e59f20c0 	ldr	r2, [pc, #192]	; 8f58 <emit_val+0xf0>
    8e94:	e59f10c0 	ldr	r1, [pc, #192]	; 8f5c <emit_val+0xf4>
    8e98:	e59f00c0 	ldr	r0, [pc, #192]	; 8f60 <emit_val+0xf8>
    8e9c:	ebffffe6 	bl	8e3c <printk>
    8ea0:	eb000115 	bl	92fc <clean_reboot>
    8ea4:	e28d400c 	add	r4, sp, #12, 0
    8ea8:	e2012001 	and	r2, r1, #1, 0
    8eac:	e59f00b0 	ldr	r0, [pc, #176]	; 8f64 <emit_val+0xfc>
    8eb0:	e7d02002 	ldrb	r2, [r0, r2]
    8eb4:	e5c42000 	strb	r2, [r4]
    8eb8:	e2844001 	add	r4, r4, #1, 0
    8ebc:	e3510001 	cmp	r1, #1, 0
    8ec0:	e1a010a1 	lsr	r1, r1, #1
    8ec4:	8afffff7 	bhi	8ea8 <emit_val+0x40>
    8ec8:	ea00001d 	b	8f44 <emit_val+0xdc>
    8ecc:	e28d400c 	add	r4, sp, #12, 0
    8ed0:	e59f3090 	ldr	r3, [pc, #144]	; 8f68 <emit_val+0x100>
    8ed4:	e0832193 	umull	r2, r3, r3, r1
    8ed8:	e1a031a3 	lsr	r3, r3, #3
    8edc:	e1a00003 	mov	r0, r3
    8ee0:	e0833103 	add	r3, r3, r3, lsl #2
    8ee4:	e0413083 	sub	r3, r1, r3, lsl #1
    8ee8:	e59fc07c 	ldr	ip, [pc, #124]	; 8f6c <emit_val+0x104>
    8eec:	e7dcc003 	ldrb	ip, [ip, r3]
    8ef0:	e5c4c000 	strb	ip, [r4]
    8ef4:	e2844001 	add	r4, r4, #1, 0
    8ef8:	e1a03001 	mov	r3, r1
    8efc:	e1a01000 	mov	r1, r0
    8f00:	e3530009 	cmp	r3, #9, 0
    8f04:	8afffff1 	bhi	8ed0 <emit_val+0x68>
    8f08:	ea00000d 	b	8f44 <emit_val+0xdc>
    8f0c:	e28d400c 	add	r4, sp, #12, 0
    8f10:	e201200f 	and	r2, r1, #15, 0
    8f14:	e59f0054 	ldr	r0, [pc, #84]	; 8f70 <emit_val+0x108>
    8f18:	e7d02002 	ldrb	r2, [r0, r2]
    8f1c:	e5c42000 	strb	r2, [r4]
    8f20:	e2844001 	add	r4, r4, #1, 0
    8f24:	e351000f 	cmp	r1, #15, 0
    8f28:	e1a01221 	lsr	r1, r1, #4
    8f2c:	8afffff7 	bhi	8f10 <emit_val+0xa8>
    8f30:	ea000003 	b	8f44 <emit_val+0xdc>
    8f34:	e59f3038 	ldr	r3, [pc, #56]	; 8f74 <emit_val+0x10c>
    8f38:	e5933000 	ldr	r3, [r3]
    8f3c:	e5740001 	ldrb	r0, [r4, #-1]!
    8f40:	e12fff33 	blx	r3
    8f44:	e28d300c 	add	r3, sp, #12, 0
    8f48:	e1540003 	cmp	r4, r3
    8f4c:	8afffff8 	bhi	8f34 <emit_val+0xcc>
    8f50:	e28dd030 	add	sp, sp, #48, 0	; 0x30
    8f54:	e8bd8010 	pop	{r4, pc}
    8f58:	0000a070 	.word	0x0000a070
    8f5c:	00009fb8 	.word	0x00009fb8
    8f60:	00009fc8 	.word	0x00009fc8
    8f64:	00009fec 	.word	0x00009fec
    8f68:	cccccccd 	.word	0xcccccccd
    8f6c:	00009ff0 	.word	0x00009ff0
    8f70:	00009ffc 	.word	0x00009ffc
    8f74:	0000a25c 	.word	0x0000a25c

00008f78 <vprintk>:
    8f78:	e92d4030 	push	{r4, r5, lr}
    8f7c:	e24dd014 	sub	sp, sp, #20, 0
    8f80:	e1a04000 	mov	r4, r0
    8f84:	e58d100c 	str	r1, [sp, #12]
    8f88:	ea000003 	b	8f9c <vprintk+0x24>
    8f8c:	e59f3288 	ldr	r3, [pc, #648]	; 921c <vprintk+0x2a4>
    8f90:	e5933000 	ldr	r3, [r3]
    8f94:	e12fff33 	blx	r3
    8f98:	e2844001 	add	r4, r4, #1, 0
    8f9c:	e5d40000 	ldrb	r0, [r4]
    8fa0:	e3500000 	cmp	r0, #0, 0
    8fa4:	0a00009a 	beq	9214 <vprintk+0x29c>
    8fa8:	e3500025 	cmp	r0, #37, 0	; 0x25
    8fac:	1afffff6 	bne	8f8c <vprintk+0x14>
    8fb0:	e2845001 	add	r5, r4, #1, 0
    8fb4:	e5d42001 	ldrb	r2, [r4, #1]
    8fb8:	e2423062 	sub	r3, r2, #98, 0	; 0x62
    8fbc:	e3530016 	cmp	r3, #22, 0
    8fc0:	979ff103 	ldrls	pc, [pc, r3, lsl #2]
    8fc4:	ea00008b 	b	91f8 <vprintk+0x280>
    8fc8:	00009024 	.word	0x00009024
    8fcc:	00009064 	.word	0x00009064
    8fd0:	0000917c 	.word	0x0000917c
    8fd4:	000091f8 	.word	0x000091f8
    8fd8:	000091f8 	.word	0x000091f8
    8fdc:	000091f8 	.word	0x000091f8
    8fe0:	000091f8 	.word	0x000091f8
    8fe4:	000091f8 	.word	0x000091f8
    8fe8:	000091f8 	.word	0x000091f8
    8fec:	000091f8 	.word	0x000091f8
    8ff0:	00009088 	.word	0x00009088
    8ff4:	000091f8 	.word	0x000091f8
    8ff8:	000091f8 	.word	0x000091f8
    8ffc:	000091f8 	.word	0x000091f8
    9000:	00009140 	.word	0x00009140
    9004:	000091f8 	.word	0x000091f8
    9008:	000091f8 	.word	0x000091f8
    900c:	000091c0 	.word	0x000091c0
    9010:	000091f8 	.word	0x000091f8
    9014:	00009044 	.word	0x00009044
    9018:	000091f8 	.word	0x000091f8
    901c:	000091f8 	.word	0x000091f8
    9020:	00009140 	.word	0x00009140
    9024:	e59d300c 	ldr	r3, [sp, #12]
    9028:	e2832004 	add	r2, r3, #4, 0
    902c:	e58d200c 	str	r2, [sp, #12]
    9030:	e5931000 	ldr	r1, [r3]
    9034:	e3a00002 	mov	r0, #2, 0
    9038:	ebffff8a 	bl	8e68 <emit_val>
    903c:	e1a04005 	mov	r4, r5
    9040:	eaffffd4 	b	8f98 <vprintk+0x20>
    9044:	e59d300c 	ldr	r3, [sp, #12]
    9048:	e2832004 	add	r2, r3, #4, 0
    904c:	e58d200c 	str	r2, [sp, #12]
    9050:	e5931000 	ldr	r1, [r3]
    9054:	e3a0000a 	mov	r0, #10, 0
    9058:	ebffff82 	bl	8e68 <emit_val>
    905c:	e1a04005 	mov	r4, r5
    9060:	eaffffcc 	b	8f98 <vprintk+0x20>
    9064:	e59f31b0 	ldr	r3, [pc, #432]	; 921c <vprintk+0x2a4>
    9068:	e5932000 	ldr	r2, [r3]
    906c:	e59d300c 	ldr	r3, [sp, #12]
    9070:	e2831004 	add	r1, r3, #4, 0
    9074:	e58d100c 	str	r1, [sp, #12]
    9078:	e5930000 	ldr	r0, [r3]
    907c:	e12fff32 	blx	r2
    9080:	e1a04005 	mov	r4, r5
    9084:	eaffffc3 	b	8f98 <vprintk+0x20>
    9088:	e2842002 	add	r2, r4, #2, 0
    908c:	e5d43002 	ldrb	r3, [r4, #2]
    9090:	e353006c 	cmp	r3, #108, 0	; 0x6c
    9094:	1a000018 	bne	90fc <vprintk+0x184>
    9098:	e2845003 	add	r5, r4, #3, 0
    909c:	e5d43003 	ldrb	r3, [r4, #3]
    90a0:	e3530078 	cmp	r3, #120, 0	; 0x78
    90a4:	1a00001b 	bne	9118 <vprintk+0x1a0>
    90a8:	e59f416c 	ldr	r4, [pc, #364]	; 921c <vprintk+0x2a4>
    90ac:	e5943000 	ldr	r3, [r4]
    90b0:	e3a00030 	mov	r0, #48, 0	; 0x30
    90b4:	e12fff33 	blx	r3
    90b8:	e5943000 	ldr	r3, [r4]
    90bc:	e3a00078 	mov	r0, #120, 0	; 0x78
    90c0:	e12fff33 	blx	r3
    90c4:	e59d300c 	ldr	r3, [sp, #12]
    90c8:	e2833007 	add	r3, r3, #7, 0
    90cc:	e3c33007 	bic	r3, r3, #7, 0
    90d0:	e2832008 	add	r2, r3, #8, 0
    90d4:	e58d200c 	str	r2, [sp, #12]
    90d8:	e5934000 	ldr	r4, [r3]
    90dc:	e5931004 	ldr	r1, [r3, #4]
    90e0:	e3510000 	cmp	r1, #0, 0
    90e4:	1a000012 	bne	9134 <vprintk+0x1bc>
    90e8:	e1a01004 	mov	r1, r4
    90ec:	e3a00010 	mov	r0, #16, 0
    90f0:	ebffff5c 	bl	8e68 <emit_val>
    90f4:	e1a04005 	mov	r4, r5
    90f8:	eaffffa6 	b	8f98 <vprintk+0x20>
    90fc:	e58d2000 	str	r2, [sp]
    9100:	e3a0303b 	mov	r3, #59, 0	; 0x3b
    9104:	e59f2114 	ldr	r2, [pc, #276]	; 9220 <vprintk+0x2a8>
    9108:	e59f1114 	ldr	r1, [pc, #276]	; 9224 <vprintk+0x2ac>
    910c:	e59f0114 	ldr	r0, [pc, #276]	; 9228 <vprintk+0x2b0>
    9110:	ebffff49 	bl	8e3c <printk>
    9114:	eb000078 	bl	92fc <clean_reboot>
    9118:	e58d5000 	str	r5, [sp]
    911c:	e3a0303e 	mov	r3, #62, 0	; 0x3e
    9120:	e59f20f8 	ldr	r2, [pc, #248]	; 9220 <vprintk+0x2a8>
    9124:	e59f10f8 	ldr	r1, [pc, #248]	; 9224 <vprintk+0x2ac>
    9128:	e59f00f8 	ldr	r0, [pc, #248]	; 9228 <vprintk+0x2b0>
    912c:	ebffff42 	bl	8e3c <printk>
    9130:	eb000071 	bl	92fc <clean_reboot>
    9134:	e3a00010 	mov	r0, #16, 0
    9138:	ebffff4a 	bl	8e68 <emit_val>
    913c:	eaffffe9 	b	90e8 <vprintk+0x170>
    9140:	e59f40d4 	ldr	r4, [pc, #212]	; 921c <vprintk+0x2a4>
    9144:	e5943000 	ldr	r3, [r4]
    9148:	e3a00030 	mov	r0, #48, 0	; 0x30
    914c:	e12fff33 	blx	r3
    9150:	e5943000 	ldr	r3, [r4]
    9154:	e3a00078 	mov	r0, #120, 0	; 0x78
    9158:	e12fff33 	blx	r3
    915c:	e59d300c 	ldr	r3, [sp, #12]
    9160:	e2832004 	add	r2, r3, #4, 0
    9164:	e58d200c 	str	r2, [sp, #12]
    9168:	e5931000 	ldr	r1, [r3]
    916c:	e3a00010 	mov	r0, #16, 0
    9170:	ebffff3c 	bl	8e68 <emit_val>
    9174:	e1a04005 	mov	r4, r5
    9178:	eaffff86 	b	8f98 <vprintk+0x20>
    917c:	e59d300c 	ldr	r3, [sp, #12]
    9180:	e2832004 	add	r2, r3, #4, 0
    9184:	e58d200c 	str	r2, [sp, #12]
    9188:	e5934000 	ldr	r4, [r3]
    918c:	e3540000 	cmp	r4, #0, 0
    9190:	ba000004 	blt	91a8 <vprintk+0x230>
    9194:	e1a01004 	mov	r1, r4
    9198:	e3a0000a 	mov	r0, #10, 0
    919c:	ebffff31 	bl	8e68 <emit_val>
    91a0:	e1a04005 	mov	r4, r5
    91a4:	eaffff7b 	b	8f98 <vprintk+0x20>
    91a8:	e59f306c 	ldr	r3, [pc, #108]	; 921c <vprintk+0x2a4>
    91ac:	e5933000 	ldr	r3, [r3]
    91b0:	e3a0002d 	mov	r0, #45, 0	; 0x2d
    91b4:	e12fff33 	blx	r3
    91b8:	e2644000 	rsb	r4, r4, #0, 0
    91bc:	eafffff4 	b	9194 <vprintk+0x21c>
    91c0:	e59d300c 	ldr	r3, [sp, #12]
    91c4:	e2832004 	add	r2, r3, #4, 0
    91c8:	e58d200c 	str	r2, [sp, #12]
    91cc:	e5934000 	ldr	r4, [r3]
    91d0:	e5d40000 	ldrb	r0, [r4]
    91d4:	e3500000 	cmp	r0, #0, 0
    91d8:	0a000004 	beq	91f0 <vprintk+0x278>
    91dc:	e59f3038 	ldr	r3, [pc, #56]	; 921c <vprintk+0x2a4>
    91e0:	e5933000 	ldr	r3, [r3]
    91e4:	e12fff33 	blx	r3
    91e8:	e2844001 	add	r4, r4, #1, 0
    91ec:	eafffff7 	b	91d0 <vprintk+0x258>
    91f0:	e1a04005 	mov	r4, r5
    91f4:	eaffff67 	b	8f98 <vprintk+0x20>
    91f8:	e58d2000 	str	r2, [sp]
    91fc:	e3a03062 	mov	r3, #98, 0	; 0x62
    9200:	e59f2018 	ldr	r2, [pc, #24]	; 9220 <vprintk+0x2a8>
    9204:	e59f1018 	ldr	r1, [pc, #24]	; 9224 <vprintk+0x2ac>
    9208:	e59f001c 	ldr	r0, [pc, #28]	; 922c <vprintk+0x2b4>
    920c:	ebffff0a 	bl	8e3c <printk>
    9210:	eb000039 	bl	92fc <clean_reboot>
    9214:	e28dd014 	add	sp, sp, #20, 0
    9218:	e8bd8030 	pop	{r4, r5, pc}
    921c:	0000a25c 	.word	0x0000a25c
    9220:	0000a07c 	.word	0x0000a07c
    9224:	00009fb8 	.word	0x00009fb8
    9228:	0000a010 	.word	0x0000a010
    922c:	0000a048 	.word	0x0000a048

00009230 <default_putchar>:
    9230:	e92d4010 	push	{r4, lr}
    9234:	e1a04000 	mov	r4, r0
    9238:	e6ef0070 	uxtb	r0, r0
    923c:	eb000159 	bl	97a8 <uart_put8>
    9240:	e1a00004 	mov	r0, r4
    9244:	e8bd8010 	pop	{r4, pc}

00009248 <rpi_putchar_set>:
    9248:	e59f300c 	ldr	r3, [pc, #12]	; 925c <rpi_putchar_set+0x14>
    924c:	e5932000 	ldr	r2, [r3]
    9250:	e5830000 	str	r0, [r3]
    9254:	e1a00002 	mov	r0, r2
    9258:	e12fff1e 	bx	lr
    925c:	0000a25c 	.word	0x0000a25c

00009260 <asm_not_reached_helper>:
    9260:	e92d4010 	push	{r4, lr}
    9264:	e1a04000 	mov	r4, r0
    9268:	e59f0010 	ldr	r0, [pc, #16]	; 9280 <asm_not_reached_helper+0x20>
    926c:	ebfffef2 	bl	8e3c <printk>
    9270:	e1a01004 	mov	r1, r4
    9274:	e59f0008 	ldr	r0, [pc, #8]	; 9284 <asm_not_reached_helper+0x24>
    9278:	ebfffeef 	bl	8e3c <printk>
    927c:	eb00001e 	bl	92fc <clean_reboot>
    9280:	0000a084 	.word	0x0000a084
    9284:	0000a0b8 	.word	0x0000a0b8

00009288 <asm_not_implemented_helper>:
    9288:	e92d4010 	push	{r4, lr}
    928c:	e1a04000 	mov	r4, r0
    9290:	e59f0010 	ldr	r0, [pc, #16]	; 92a8 <asm_not_implemented_helper+0x20>
    9294:	ebfffee8 	bl	8e3c <printk>
    9298:	e1a01004 	mov	r1, r4
    929c:	e59f0008 	ldr	r0, [pc, #8]	; 92ac <asm_not_implemented_helper+0x24>
    92a0:	ebfffee5 	bl	8e3c <printk>
    92a4:	eb000014 	bl	92fc <clean_reboot>
    92a8:	0000a0ec 	.word	0x0000a0ec
    92ac:	0000a0b8 	.word	0x0000a0b8

000092b0 <asm_todo_helper>:
    92b0:	e92d4010 	push	{r4, lr}
    92b4:	e1a04001 	mov	r4, r1
    92b8:	e59f0018 	ldr	r0, [pc, #24]	; 92d8 <asm_todo_helper+0x28>
    92bc:	ebfffede 	bl	8e3c <printk>
    92c0:	e59f0014 	ldr	r0, [pc, #20]	; 92dc <asm_todo_helper+0x2c>
    92c4:	ebfffedc 	bl	8e3c <printk>
    92c8:	e1a01004 	mov	r1, r4
    92cc:	e59f000c 	ldr	r0, [pc, #12]	; 92e0 <asm_todo_helper+0x30>
    92d0:	ebfffed9 	bl	8e3c <printk>
    92d4:	eb000008 	bl	92fc <clean_reboot>
    92d8:	0000a118 	.word	0x0000a118
    92dc:	0000a150 	.word	0x0000a150
    92e0:	0000a184 	.word	0x0000a184

000092e4 <asm_bad_exception_helper>:
    92e4:	e92d4010 	push	{r4, lr}
    92e8:	e1a02000 	mov	r2, r0
    92ec:	e59f0004 	ldr	r0, [pc, #4]	; 92f8 <asm_bad_exception_helper+0x14>
    92f0:	ebfffed1 	bl	8e3c <printk>
    92f4:	eb000000 	bl	92fc <clean_reboot>
    92f8:	0000a18c 	.word	0x0000a18c

000092fc <clean_reboot>:
    92fc:	e92d4010 	push	{r4, lr}
    9300:	e59f0010 	ldr	r0, [pc, #16]	; 9318 <clean_reboot+0x1c>
    9304:	eb000153 	bl	9858 <putk>
    9308:	eb000141 	bl	9814 <uart_flush_tx>
    930c:	e3a0000a 	mov	r0, #10, 0
    9310:	eb000062 	bl	94a0 <delay_ms>
    9314:	eb000037 	bl	93f8 <rpi_reboot>
    9318:	0000a1ac 	.word	0x0000a1ac

0000931c <_cstart>:
    931c:	e52de004 	push	{lr}		; (str lr, [sp, #-4]!)
    9320:	e24dd014 	sub	sp, sp, #20, 0
    9324:	eb000027 	bl	93c8 <custom_loader>
    9328:	e59f3084 	ldr	r3, [pc, #132]	; 93b4 <_cstart+0x98>
    932c:	ea000001 	b	9338 <_cstart+0x1c>
    9330:	e3a02000 	mov	r2, #0, 0
    9334:	e4832004 	str	r2, [r3], #4
    9338:	e59f2078 	ldr	r2, [pc, #120]	; 93b8 <_cstart+0x9c>
    933c:	e1530002 	cmp	r3, r2
    9340:	3afffffa 	bcc	9330 <_cstart+0x14>
    9344:	e3a02a01 	mov	r2, #4096	; 0x1000
    9348:	e3a01000 	mov	r1, #0, 0
    934c:	e1a00001 	mov	r0, r1
    9350:	ebfffe91 	bl	8d9c <memset>
    9354:	e3a03000 	mov	r3, #0, 0
    9358:	e3530b01 	cmp	r3, #1024	; 0x400
    935c:	2a00000f 	bcs	93a0 <_cstart+0x84>
    9360:	e1a02103 	lsl	r2, r3, #2
    9364:	e5921000 	ldr	r1, [r2]
    9368:	e3510000 	cmp	r1, #0, 0
    936c:	02833001 	addeq	r3, r3, #1, 0
    9370:	0afffff8 	beq	9358 <_cstart+0x3c>
    9374:	e5923000 	ldr	r3, [r2]
    9378:	e3a01001 	mov	r1, #1, 0
    937c:	e58d1008 	str	r1, [sp, #8]
    9380:	e58d3004 	str	r3, [sp, #4]
    9384:	e58d2000 	str	r2, [sp]
    9388:	e3a03012 	mov	r3, #18, 0
    938c:	e59f2028 	ldr	r2, [pc, #40]	; 93bc <_cstart+0xa0>
    9390:	e59f1028 	ldr	r1, [pc, #40]	; 93c0 <_cstart+0xa4>
    9394:	e59f0028 	ldr	r0, [pc, #40]	; 93c4 <_cstart+0xa8>
    9398:	ebfffea7 	bl	8e3c <printk>
    939c:	ebffffd6 	bl	92fc <clean_reboot>
    93a0:	eb0000b4 	bl	9678 <uart_init>
    93a4:	e3a03001 	mov	r3, #1, 0
    93a8:	ee0f3f1c 	mcr	15, 0, r3, cr15, cr12, {0}
    93ac:	ebfffb64 	bl	8144 <notmain>
    93b0:	ebffffd1 	bl	92fc <clean_reboot>
    93b4:	0000a260 	.word	0x0000a260
    93b8:	0000a488 	.word	0x0000a488
    93bc:	0000a23c 	.word	0x0000a23c
    93c0:	0000a1b8 	.word	0x0000a1b8
    93c4:	0000a200 	.word	0x0000a200

000093c8 <custom_loader>:
    93c8:	e12fff1e 	bx	lr

000093cc <at_user_level>:
    93cc:	e10f0000 	mrs	r0, CPSR
    93d0:	e200001f 	and	r0, r0, #31, 0
    93d4:	e3500010 	cmp	r0, #16, 0
    93d8:	13a00000 	movne	r0, #0, 0
    93dc:	03a00001 	moveq	r0, #1, 0
    93e0:	e12fff1e 	bx	lr

000093e4 <set_user_level>:
    93e4:	e10f3000 	mrs	r3, CPSR
    93e8:	e3c3301f 	bic	r3, r3, #31, 0
    93ec:	e3833010 	orr	r3, r3, #16, 0
    93f0:	e129f003 	msr	CPSR_fc, r3
    93f4:	e12fff1e 	bx	lr

000093f8 <rpi_reboot>:
    93f8:	e92d4010 	push	{r4, lr}
    93fc:	ebfffff2 	bl	93cc <at_user_level>
    9400:	e3500000 	cmp	r0, #0, 0
    9404:	1a00000a 	bne	9434 <rpi_reboot+0x3c>
    9408:	eb00011f 	bl	988c <reboot_callout>
    940c:	eb000100 	bl	9814 <uart_flush_tx>
    9410:	e3a0000a 	mov	r0, #10, 0
    9414:	eb000021 	bl	94a0 <delay_ms>
    9418:	e59f101c 	ldr	r1, [pc, #28]	; 943c <rpi_reboot+0x44>
    941c:	e59f001c 	ldr	r0, [pc, #28]	; 9440 <rpi_reboot+0x48>
    9420:	ebfffaff 	bl	8024 <PUT32>
    9424:	e59f1018 	ldr	r1, [pc, #24]	; 9444 <rpi_reboot+0x4c>
    9428:	e59f0018 	ldr	r0, [pc, #24]	; 9448 <rpi_reboot+0x50>
    942c:	ebfffafc 	bl	8024 <PUT32>
    9430:	eafffffe 	b	9430 <rpi_reboot+0x38>
    9434:	ebffffea 	bl	93e4 <set_user_level>
    9438:	eafffff2 	b	9408 <rpi_reboot+0x10>
    943c:	5a000001 	.word	0x5a000001
    9440:	20100024 	.word	0x20100024
    9444:	5a000020 	.word	0x5a000020
    9448:	2010001c 	.word	0x2010001c

0000944c <timer_get_usec_raw>:
    944c:	e92d4010 	push	{r4, lr}
    9450:	e59f0004 	ldr	r0, [pc, #4]	; 945c <timer_get_usec_raw+0x10>
    9454:	ebfffaf4 	bl	802c <GET32>
    9458:	e8bd8010 	pop	{r4, pc}
    945c:	20003004 	.word	0x20003004

00009460 <timer_get_usec>:
    9460:	e92d4010 	push	{r4, lr}
    9464:	eb000109 	bl	9890 <dev_barrier>
    9468:	ebfffff7 	bl	944c <timer_get_usec_raw>
    946c:	e1a04000 	mov	r4, r0
    9470:	eb000106 	bl	9890 <dev_barrier>
    9474:	e1a00004 	mov	r0, r4
    9478:	e8bd8010 	pop	{r4, pc}

0000947c <delay_us>:
    947c:	e92d4070 	push	{r4, r5, r6, lr}
    9480:	e1a05000 	mov	r5, r0
    9484:	ebfffff5 	bl	9460 <timer_get_usec>
    9488:	e1a04000 	mov	r4, r0
    948c:	ebfffff3 	bl	9460 <timer_get_usec>
    9490:	e0400004 	sub	r0, r0, r4
    9494:	e1500005 	cmp	r0, r5
    9498:	3afffffb 	bcc	948c <delay_us+0x10>
    949c:	e8bd8070 	pop	{r4, r5, r6, pc}

000094a0 <delay_ms>:
    94a0:	e92d4010 	push	{r4, lr}
    94a4:	e0603280 	rsb	r3, r0, r0, lsl #5
    94a8:	e0800103 	add	r0, r0, r3, lsl #2
    94ac:	e1a00180 	lsl	r0, r0, #3
    94b0:	ebfffff1 	bl	947c <delay_us>
    94b4:	e8bd8010 	pop	{r4, pc}

000094b8 <delay_sec>:
    94b8:	e92d4010 	push	{r4, lr}
    94bc:	e0603280 	rsb	r3, r0, r0, lsl #5
    94c0:	e0800103 	add	r0, r0, r3, lsl #2
    94c4:	e1a00180 	lsl	r0, r0, #3
    94c8:	ebfffff4 	bl	94a0 <delay_ms>
    94cc:	e8bd8010 	pop	{r4, pc}

000094d0 <gpio_set_function>:
    94d0:	e350002f 	cmp	r0, #47, 0	; 0x2f
    94d4:	1350001f 	cmpne	r0, #31, 0
    94d8:	812fff1e 	bxhi	lr
    94dc:	e92d4070 	push	{r4, r5, r6, lr}
    94e0:	e1a05001 	mov	r5, r1
    94e4:	e3d13007 	bics	r3, r1, #7, 0
    94e8:	18bd8070 	popne	{r4, r5, r6, pc}
    94ec:	e59f3040 	ldr	r3, [pc, #64]	; 9534 <gpio_set_function+0x64>
    94f0:	e0832093 	umull	r2, r3, r3, r0
    94f4:	e1a031a3 	lsr	r3, r3, #3
    94f8:	e1a02003 	mov	r2, r3
    94fc:	e0833103 	add	r3, r3, r3, lsl #2
    9500:	e0403083 	sub	r3, r0, r3, lsl #1
    9504:	e0834083 	add	r4, r3, r3, lsl #1
    9508:	e2820302 	add	r0, r2, #134217728	; 0x8000000
    950c:	e2800702 	add	r0, r0, #524288	; 0x80000
    9510:	e1a06100 	lsl	r6, r0, #2
    9514:	e1a00006 	mov	r0, r6
    9518:	ebfffac3 	bl	802c <GET32>
    951c:	e3a01007 	mov	r1, #7, 0
    9520:	e1c01411 	bic	r1, r0, r1, lsl r4
    9524:	e1811415 	orr	r1, r1, r5, lsl r4
    9528:	e1a00006 	mov	r0, r6
    952c:	ebfffabc 	bl	8024 <PUT32>
    9530:	e8bd8070 	pop	{r4, r5, r6, pc}
    9534:	cccccccd 	.word	0xcccccccd

00009538 <gpio_set_output>:
    9538:	e92d4010 	push	{r4, lr}
    953c:	e3a01001 	mov	r1, #1, 0
    9540:	ebffffe2 	bl	94d0 <gpio_set_function>
    9544:	e8bd8010 	pop	{r4, pc}

00009548 <gpio_set_on>:
    9548:	e92d4010 	push	{r4, lr}
    954c:	e350002f 	cmp	r0, #47, 0	; 0x2f
    9550:	0a000006 	beq	9570 <gpio_set_on+0x28>
    9554:	e350001f 	cmp	r0, #31, 0
    9558:	88bd8010 	pophi	{r4, pc}
    955c:	e3a01001 	mov	r1, #1, 0
    9560:	e1a01011 	lsl	r1, r1, r0
    9564:	e59f001c 	ldr	r0, [pc, #28]	; 9588 <gpio_set_on+0x40>
    9568:	ebfffaad 	bl	8024 <PUT32>
    956c:	e8bd8010 	pop	{r4, pc}
    9570:	e200001f 	and	r0, r0, #31, 0
    9574:	e3a01001 	mov	r1, #1, 0
    9578:	e1a01011 	lsl	r1, r1, r0
    957c:	e59f0008 	ldr	r0, [pc, #8]	; 958c <gpio_set_on+0x44>
    9580:	ebfffaa7 	bl	8024 <PUT32>
    9584:	e8bd8010 	pop	{r4, pc}
    9588:	2020001c 	.word	0x2020001c
    958c:	20200020 	.word	0x20200020

00009590 <gpio_set_off>:
    9590:	e92d4010 	push	{r4, lr}
    9594:	e350002f 	cmp	r0, #47, 0	; 0x2f
    9598:	0a000006 	beq	95b8 <gpio_set_off+0x28>
    959c:	e350001f 	cmp	r0, #31, 0
    95a0:	88bd8010 	pophi	{r4, pc}
    95a4:	e3a01001 	mov	r1, #1, 0
    95a8:	e1a01011 	lsl	r1, r1, r0
    95ac:	e59f001c 	ldr	r0, [pc, #28]	; 95d0 <gpio_set_off+0x40>
    95b0:	ebfffa9b 	bl	8024 <PUT32>
    95b4:	e8bd8010 	pop	{r4, pc}
    95b8:	e200001f 	and	r0, r0, #31, 0
    95bc:	e3a01001 	mov	r1, #1, 0
    95c0:	e1a01011 	lsl	r1, r1, r0
    95c4:	e59f0008 	ldr	r0, [pc, #8]	; 95d4 <gpio_set_off+0x44>
    95c8:	ebfffa95 	bl	8024 <PUT32>
    95cc:	e8bd8010 	pop	{r4, pc}
    95d0:	20200028 	.word	0x20200028
    95d4:	2020002c 	.word	0x2020002c

000095d8 <gpio_set_input>:
    95d8:	e92d4010 	push	{r4, lr}
    95dc:	e3a01000 	mov	r1, #0, 0
    95e0:	ebffffba 	bl	94d0 <gpio_set_function>
    95e4:	e8bd8010 	pop	{r4, pc}

000095e8 <gpio_write>:
    95e8:	e92d4010 	push	{r4, lr}
    95ec:	e3510000 	cmp	r1, #0, 0
    95f0:	0a000001 	beq	95fc <gpio_write+0x14>
    95f4:	ebffffd3 	bl	9548 <gpio_set_on>
    95f8:	e8bd8010 	pop	{r4, pc}
    95fc:	ebffffe3 	bl	9590 <gpio_set_off>
    9600:	e8bd8010 	pop	{r4, pc}

00009604 <gpio_read>:
    9604:	e350001f 	cmp	r0, #31, 0
    9608:	8a000006 	bhi	9628 <gpio_read+0x24>
    960c:	e92d4010 	push	{r4, lr}
    9610:	e1a04000 	mov	r4, r0
    9614:	e59f0014 	ldr	r0, [pc, #20]	; 9630 <gpio_read+0x2c>
    9618:	ebfffa83 	bl	802c <GET32>
    961c:	e1a00430 	lsr	r0, r0, r4
    9620:	e2000001 	and	r0, r0, #1, 0
    9624:	e8bd8010 	pop	{r4, pc}
    9628:	e3e00000 	mvn	r0, #0, 0
    962c:	e12fff1e 	bx	lr
    9630:	20200034 	.word	0x20200034

00009634 <using_staff_gpio>:
    9634:	e12fff1e 	bx	lr

00009638 <and_in32>:
    9638:	e92d4070 	push	{r4, r5, r6, lr}
    963c:	e1a04000 	mov	r4, r0
    9640:	e1a05001 	mov	r5, r1
    9644:	ebfffa78 	bl	802c <GET32>
    9648:	e0001005 	and	r1, r0, r5
    964c:	e1a00004 	mov	r0, r4
    9650:	ebfffa73 	bl	8024 <PUT32>
    9654:	e8bd8070 	pop	{r4, r5, r6, pc}

00009658 <or_in32>:
    9658:	e92d4070 	push	{r4, r5, r6, lr}
    965c:	e1a04000 	mov	r4, r0
    9660:	e1a05001 	mov	r5, r1
    9664:	ebfffa70 	bl	802c <GET32>
    9668:	e1801005 	orr	r1, r0, r5
    966c:	e1a00004 	mov	r0, r4
    9670:	ebfffa6b 	bl	8024 <PUT32>
    9674:	e8bd8070 	pop	{r4, r5, r6, pc}

00009678 <uart_init>:
    9678:	e92d4010 	push	{r4, lr}
    967c:	eb000083 	bl	9890 <dev_barrier>
    9680:	e3a01002 	mov	r1, #2, 0
    9684:	e3a0000e 	mov	r0, #14, 0
    9688:	ebffff90 	bl	94d0 <gpio_set_function>
    968c:	e3a01002 	mov	r1, #2, 0
    9690:	e3a0000f 	mov	r0, #15, 0
    9694:	ebffff8d 	bl	94d0 <gpio_set_function>
    9698:	eb00007c 	bl	9890 <dev_barrier>
    969c:	e3a01001 	mov	r1, #1, 0
    96a0:	e59f0064 	ldr	r0, [pc, #100]	; 970c <uart_init+0x94>
    96a4:	ebffffeb 	bl	9658 <or_in32>
    96a8:	eb000078 	bl	9890 <dev_barrier>
    96ac:	e59f405c 	ldr	r4, [pc, #92]	; 9710 <uart_init+0x98>
    96b0:	e3a01000 	mov	r1, #0, 0
    96b4:	e1a00004 	mov	r0, r4
    96b8:	ebfffa59 	bl	8024 <PUT32>
    96bc:	e3a01000 	mov	r1, #0, 0
    96c0:	e59f004c 	ldr	r0, [pc, #76]	; 9714 <uart_init+0x9c>
    96c4:	ebfffa56 	bl	8024 <PUT32>
    96c8:	e3a01003 	mov	r1, #3, 0
    96cc:	e59f0044 	ldr	r0, [pc, #68]	; 9718 <uart_init+0xa0>
    96d0:	ebfffa53 	bl	8024 <PUT32>
    96d4:	e3a01000 	mov	r1, #0, 0
    96d8:	e59f003c 	ldr	r0, [pc, #60]	; 971c <uart_init+0xa4>
    96dc:	ebfffa50 	bl	8024 <PUT32>
    96e0:	e3a01006 	mov	r1, #6, 0
    96e4:	e59f0034 	ldr	r0, [pc, #52]	; 9720 <uart_init+0xa8>
    96e8:	ebfffa4d 	bl	8024 <PUT32>
    96ec:	e59f1030 	ldr	r1, [pc, #48]	; 9724 <uart_init+0xac>
    96f0:	e59f0030 	ldr	r0, [pc, #48]	; 9728 <uart_init+0xb0>
    96f4:	ebfffa4a 	bl	8024 <PUT32>
    96f8:	e3a01003 	mov	r1, #3, 0
    96fc:	e1a00004 	mov	r0, r4
    9700:	ebfffa47 	bl	8024 <PUT32>
    9704:	eb000061 	bl	9890 <dev_barrier>
    9708:	e8bd8010 	pop	{r4, pc}
    970c:	20215004 	.word	0x20215004
    9710:	20215060 	.word	0x20215060
    9714:	20215044 	.word	0x20215044
    9718:	2021504c 	.word	0x2021504c
    971c:	20215050 	.word	0x20215050
    9720:	20215048 	.word	0x20215048
    9724:	0000010e 	.word	0x0000010e
    9728:	20215068 	.word	0x20215068

0000972c <uart_can_getc>:
    972c:	e92d4010 	push	{r4, lr}
    9730:	e59f0008 	ldr	r0, [pc, #8]	; 9740 <uart_can_getc+0x14>
    9734:	ebfffa3c 	bl	802c <GET32>
    9738:	e2000001 	and	r0, r0, #1, 0
    973c:	e8bd8010 	pop	{r4, pc}
    9740:	20215054 	.word	0x20215054

00009744 <uart_can_putc>:
    9744:	e92d4010 	push	{r4, lr}
    9748:	e59f0010 	ldr	r0, [pc, #16]	; 9760 <uart_can_putc+0x1c>
    974c:	ebfffa36 	bl	802c <GET32>
    9750:	e3100020 	tst	r0, #32, 0
    9754:	13a00001 	movne	r0, #1, 0
    9758:	03a00000 	moveq	r0, #0, 0
    975c:	e8bd8010 	pop	{r4, pc}
    9760:	20215054 	.word	0x20215054

00009764 <uart_can_put8>:
    9764:	e92d4010 	push	{r4, lr}
    9768:	ebfffff5 	bl	9744 <uart_can_putc>
    976c:	e8bd8010 	pop	{r4, pc}

00009770 <uart_get8>:
    9770:	e92d4010 	push	{r4, lr}
    9774:	eb000045 	bl	9890 <dev_barrier>
    9778:	ea000000 	b	9780 <uart_get8+0x10>
    977c:	eb000049 	bl	98a8 <rpi_wait>
    9780:	ebffffe9 	bl	972c <uart_can_getc>
    9784:	e3500000 	cmp	r0, #0, 0
    9788:	0afffffb 	beq	977c <uart_get8+0xc>
    978c:	e59f0010 	ldr	r0, [pc, #16]	; 97a4 <uart_get8+0x34>
    9790:	ebfffa25 	bl	802c <GET32>
    9794:	e6ef4070 	uxtb	r4, r0
    9798:	eb00003c 	bl	9890 <dev_barrier>
    979c:	e1a00004 	mov	r0, r4
    97a0:	e8bd8010 	pop	{r4, pc}
    97a4:	20215040 	.word	0x20215040

000097a8 <uart_put8>:
    97a8:	e92d4010 	push	{r4, lr}
    97ac:	e1a04000 	mov	r4, r0
    97b0:	eb000036 	bl	9890 <dev_barrier>
    97b4:	ea000000 	b	97bc <uart_put8+0x14>
    97b8:	eb00003a 	bl	98a8 <rpi_wait>
    97bc:	ebffffe0 	bl	9744 <uart_can_putc>
    97c0:	e3500000 	cmp	r0, #0, 0
    97c4:	0afffffb 	beq	97b8 <uart_put8+0x10>
    97c8:	e1a01004 	mov	r1, r4
    97cc:	e59f000c 	ldr	r0, [pc, #12]	; 97e0 <uart_put8+0x38>
    97d0:	ebfffa13 	bl	8024 <PUT32>
    97d4:	eb00002d 	bl	9890 <dev_barrier>
    97d8:	e3a00001 	mov	r0, #1, 0
    97dc:	e8bd8010 	pop	{r4, pc}
    97e0:	20215040 	.word	0x20215040

000097e4 <uart_has_data>:
    97e4:	e92d4010 	push	{r4, lr}
    97e8:	eb000028 	bl	9890 <dev_barrier>
    97ec:	ebffffce 	bl	972c <uart_can_getc>
    97f0:	e8bd8010 	pop	{r4, pc}

000097f4 <uart_tx_is_empty>:
    97f4:	e92d4010 	push	{r4, lr}
    97f8:	eb000024 	bl	9890 <dev_barrier>
    97fc:	e59f000c 	ldr	r0, [pc, #12]	; 9810 <uart_tx_is_empty+0x1c>
    9800:	ebfffa09 	bl	802c <GET32>
    9804:	e1a004a0 	lsr	r0, r0, #9
    9808:	e2000001 	and	r0, r0, #1, 0
    980c:	e8bd8010 	pop	{r4, pc}
    9810:	20215064 	.word	0x20215064

00009814 <uart_flush_tx>:
    9814:	e92d4010 	push	{r4, lr}
    9818:	ea000000 	b	9820 <uart_flush_tx+0xc>
    981c:	eb000021 	bl	98a8 <rpi_wait>
    9820:	ebfffff3 	bl	97f4 <uart_tx_is_empty>
    9824:	e3500000 	cmp	r0, #0, 0
    9828:	0afffffb 	beq	981c <uart_flush_tx+0x8>
    982c:	e8bd8010 	pop	{r4, pc}

00009830 <uart_disable>:
    9830:	e92d4010 	push	{r4, lr}
    9834:	ebfffff6 	bl	9814 <uart_flush_tx>
    9838:	eb000014 	bl	9890 <dev_barrier>
    983c:	e3e01001 	mvn	r1, #1, 0
    9840:	e59f0008 	ldr	r0, [pc, #8]	; 9850 <uart_disable+0x20>
    9844:	ebffff7b 	bl	9638 <and_in32>
    9848:	eb000010 	bl	9890 <dev_barrier>
    984c:	e8bd8010 	pop	{r4, pc}
    9850:	20215004 	.word	0x20215004

00009854 <using_staff_uart>:
    9854:	e12fff1e 	bx	lr

00009858 <putk>:
    9858:	e92d4010 	push	{r4, lr}
    985c:	e1a04000 	mov	r4, r0
    9860:	e5d40000 	ldrb	r0, [r4]
    9864:	e3500000 	cmp	r0, #0, 0
    9868:	0a000004 	beq	9880 <putk+0x28>
    986c:	e59f3014 	ldr	r3, [pc, #20]	; 9888 <putk+0x30>
    9870:	e5933000 	ldr	r3, [r3]
    9874:	e12fff33 	blx	r3
    9878:	e2844001 	add	r4, r4, #1, 0
    987c:	eafffff7 	b	9860 <putk+0x8>
    9880:	e3a00001 	mov	r0, #1, 0
    9884:	e8bd8010 	pop	{r4, pc}
    9888:	0000a25c 	.word	0x0000a25c

0000988c <reboot_callout>:
    988c:	e12fff1e 	bx	lr

00009890 <dev_barrier>:
    9890:	ea000002 	b	98a0 <dsb>

00009894 <dmb>:
    9894:	e3a00000 	mov	r0, #0, 0
    9898:	ee070fba 	mcr	15, 0, r0, cr7, cr10, {5}
    989c:	e12fff1e 	bx	lr

000098a0 <dsb>:
    98a0:	ee070f9a 	mcr	15, 0, r0, cr7, cr10, {4}
    98a4:	e12fff1e 	bx	lr

000098a8 <rpi_wait>:
    98a8:	e12fff1e 	bx	lr

000098ac <__code_end__>:
    98ac:	00000000 	andeq	r0, r0, r0
