
objs/equiv-test-1.elf:     file format elf32-littlearm


Disassembly of section .text:

00008000 <__code_start__>:
    8000:	e3a00013 	mov	r0, #19, 0
    8004:	e3800080 	orr	r0, r0, #128, 0	; 0x80
    8008:	e129f000 	msr	CPSR_fc, r0
    800c:	e3a01000 	mov	r1, #0, 0
    8010:	ee071f95 	mcr	15, 0, r1, cr7, cr5, {4}
    8014:	e3a0d302 	mov	sp, #134217728	; 0x8000000
    8018:	e3a0b000 	mov	fp, #0, 0
    801c:	eb000c0b 	bl	b050 <_cstart>
    8020:	eb000cce 	bl	b360 <rpi_reboot>

00008024 <PUT32>:
    8024:	e5801000 	str	r1, [r0]
    8028:	e12fff1e 	bx	lr

0000802c <GET32>:
    802c:	e5900000 	ldr	r0, [r0]
    8030:	e12fff1e 	bx	lr

00008034 <BRANCHTO>:
    8034:	e12fff10 	bx	r0

00008038 <nop_1>:
    8038:	e320f000 	nop	{0}
    803c:	e3a00000 	mov	r0, #0, 0
    8040:	ef000001 	svc	0x00000001

00008044 <nop_10>:
    8044:	e320f000 	nop	{0}
    8048:	e320f000 	nop	{0}
    804c:	e320f000 	nop	{0}
    8050:	e320f000 	nop	{0}
    8054:	e320f000 	nop	{0}
    8058:	e320f000 	nop	{0}
    805c:	e320f000 	nop	{0}
    8060:	e320f000 	nop	{0}
    8064:	e320f000 	nop	{0}
    8068:	e320f000 	nop	{0}
    806c:	e12fff1e 	bx	lr
    8070:	e3a0d409 	mov	sp, #150994944	; 0x9000000
    8074:	e24f0004 	sub	r0, pc, #4, 0
    8078:	e28f1000 	add	r1, pc, #0, 0
    807c:	ea000bc4 	b	af94 <asm_not_reached_helper>
    8080:	66617473 	.word	0x66617473
    8084:	74732d66 	.word	0x74732d66
    8088:	2e747261 	.word	0x2e747261
    808c:	35383a53 	.word	0x35383a53
    8090:	4f4e3c3a 	.word	0x4f4e3c3a
    8094:	45522054 	.word	0x45522054
    8098:	45484341 	.word	0x45484341
    809c:	3e44      	.short	0x3e44
	...

000080a0 <mov_ident>:
    80a0:	e3a00000 	mov	r0, #0, 0
    80a4:	e3a01001 	mov	r1, #1, 0
    80a8:	e3a02002 	mov	r2, #2, 0
    80ac:	e3a03003 	mov	r3, #3, 0
    80b0:	e3a04004 	mov	r4, #4, 0
    80b4:	e3a05005 	mov	r5, #5, 0
    80b8:	e3a06006 	mov	r6, #6, 0
    80bc:	e3a07007 	mov	r7, #7, 0
    80c0:	e3a08008 	mov	r8, #8, 0
    80c4:	e3a09009 	mov	r9, #9, 0
    80c8:	e3a0a00a 	mov	sl, #10, 0
    80cc:	e3a0b00b 	mov	fp, #11, 0
    80d0:	e3a0c00c 	mov	ip, #12, 0
    80d4:	e12fff1e 	bx	lr
    80d8:	e3a0d409 	mov	sp, #150994944	; 0x9000000
    80dc:	e24f0004 	sub	r0, pc, #4, 0
    80e0:	e28f1000 	add	r1, pc, #0, 0
    80e4:	ea000baa 	b	af94 <asm_not_reached_helper>
    80e8:	66617473 	.word	0x66617473
    80ec:	74732d66 	.word	0x74732d66
    80f0:	2e747261 	.word	0x2e747261
    80f4:	30313a53 	.word	0x30313a53
    80f8:	4e3c3a33 	.word	0x4e3c3a33
    80fc:	5220544f 	.word	0x5220544f
    8100:	48434145 	.word	0x48434145
    8104:	003e4445 	.word	0x003e4445

00008108 <small1>:
    8108:	e3a01001 	mov	r1, #1, 0
    810c:	e3a00000 	mov	r0, #0, 0
    8110:	ef000001 	svc	0x00000001

00008114 <small2>:
    8114:	e3a01002 	mov	r1, #2, 0
    8118:	e3a00000 	mov	r0, #0, 0
    811c:	ef000001 	svc	0x00000001

00008120 <sys_equiv_exit>:
    8120:	e3a00000 	mov	r0, #0, 0
    8124:	ef000001 	svc	0x00000001

00008128 <sys_equiv_putc>:
    8128:	e52de004 	push	{lr}		; (str lr, [sp, #-4]!)
    812c:	e1a01000 	mov	r1, r0
    8130:	e3a00001 	mov	r0, #1, 0
    8134:	ef000001 	svc	0x00000001
    8138:	e49de004 	pop	{lr}		; (ldr lr, [sp], #4)
    813c:	e12fff1e 	bx	lr

00008140 <run_single>:
    8140:	e92d4070 	push	{r4, r5, r6, lr}
    8144:	e1a06000 	mov	r6, r0
    8148:	e1a00001 	mov	r0, r1
    814c:	e1a01002 	mov	r1, r2
    8150:	e3a02000 	mov	r2, #0, 0
    8154:	eb0003e0 	bl	90dc <pre_fork>
    8158:	e1a05000 	mov	r5, r0
    815c:	eb000556 	bl	96bc <pre_run>
    8160:	e59f104c 	ldr	r1, [pc, #76]	; 81b4 <run_single+0x74>
    8164:	e59f004c 	ldr	r0, [pc, #76]	; 81b8 <run_single+0x78>
    8168:	eb000a80 	bl	ab70 <printk>
    816c:	e59f0048 	ldr	r0, [pc, #72]	; 81bc <run_single+0x7c>
    8170:	eb000a7e 	bl	ab70 <printk>
    8174:	e3a04000 	mov	r4, #0, 0
    8178:	e1540006 	cmp	r4, r6
    817c:	aa00000a 	bge	81ac <run_single+0x6c>
    8180:	e1a00005 	mov	r0, r5
    8184:	eb0004e3 	bl	9518 <equiv_refresh>
    8188:	eb00054b 	bl	96bc <pre_run>
    818c:	e59f1020 	ldr	r1, [pc, #32]	; 81b4 <run_single+0x74>
    8190:	e59f0020 	ldr	r0, [pc, #32]	; 81b8 <run_single+0x78>
    8194:	eb000a75 	bl	ab70 <printk>
    8198:	e1a01004 	mov	r1, r4
    819c:	e59f001c 	ldr	r0, [pc, #28]	; 81c0 <run_single+0x80>
    81a0:	eb000a72 	bl	ab70 <printk>
    81a4:	e2844001 	add	r4, r4, #1, 0
    81a8:	eafffff2 	b	8178 <run_single+0x38>
    81ac:	e1a00005 	mov	r0, r5
    81b0:	e8bd8070 	pop	{r4, r5, r6, pc}
    81b4:	0000bccc 	.word	0x0000bccc
    81b8:	0000bc18 	.word	0x0000bc18
    81bc:	0000bc24 	.word	0x0000bc24
    81c0:	0000bc54 	.word	0x0000bc54

000081c4 <notmain>:
    81c4:	e92d47f0 	push	{r4, r5, r6, r7, r8, r9, sl, lr}
    81c8:	eb00062e 	bl	9a88 <pre_init>
    81cc:	e59f3114 	ldr	r3, [pc, #276]	; 82e8 <notmain+0x124>
    81d0:	e3a02000 	mov	r2, #0, 0
    81d4:	e59f1110 	ldr	r1, [pc, #272]	; 82ec <notmain+0x128>
    81d8:	e3a00001 	mov	r0, #1, 0
    81dc:	ebffffd7 	bl	8140 <run_single>
    81e0:	e1a08000 	mov	r8, r0
    81e4:	e59f3104 	ldr	r3, [pc, #260]	; 82f0 <notmain+0x12c>
    81e8:	e3a02000 	mov	r2, #0, 0
    81ec:	e59f1100 	ldr	r1, [pc, #256]	; 82f4 <notmain+0x130>
    81f0:	e3a00001 	mov	r0, #1, 0
    81f4:	ebffffd1 	bl	8140 <run_single>
    81f8:	e1a07000 	mov	r7, r0
    81fc:	e1a00008 	mov	r0, r8
    8200:	eb0004c4 	bl	9518 <equiv_refresh>
    8204:	e1a00007 	mov	r0, r7
    8208:	eb0004c2 	bl	9518 <equiv_refresh>
    820c:	eb00052a 	bl	96bc <pre_run>
    8210:	e59fa0e0 	ldr	sl, [pc, #224]	; 82f8 <notmain+0x134>
    8214:	e59f90e0 	ldr	r9, [pc, #224]	; 82fc <notmain+0x138>
    8218:	e1a0100a 	mov	r1, sl
    821c:	e1a00009 	mov	r0, r9
    8220:	eb000a52 	bl	ab70 <printk>
    8224:	e59f00d4 	ldr	r0, [pc, #212]	; 8300 <notmain+0x13c>
    8228:	eb000a50 	bl	ab70 <printk>
    822c:	e59f30d0 	ldr	r3, [pc, #208]	; 8304 <notmain+0x140>
    8230:	e3a02000 	mov	r2, #0, 0
    8234:	e59f10cc 	ldr	r1, [pc, #204]	; 8308 <notmain+0x144>
    8238:	e1a00002 	mov	r0, r2
    823c:	ebffffbf 	bl	8140 <run_single>
    8240:	e1a06000 	mov	r6, r0
    8244:	e59f30c0 	ldr	r3, [pc, #192]	; 830c <notmain+0x148>
    8248:	e3a02000 	mov	r2, #0, 0
    824c:	e59f10bc 	ldr	r1, [pc, #188]	; 8310 <notmain+0x14c>
    8250:	e1a00002 	mov	r0, r2
    8254:	ebffffb9 	bl	8140 <run_single>
    8258:	e1a04000 	mov	r4, r0
    825c:	e59f30b0 	ldr	r3, [pc, #176]	; 8314 <notmain+0x150>
    8260:	e3a02000 	mov	r2, #0, 0
    8264:	e59f10ac 	ldr	r1, [pc, #172]	; 8318 <notmain+0x154>
    8268:	e1a00002 	mov	r0, r2
    826c:	ebffffb3 	bl	8140 <run_single>
    8270:	e1a05000 	mov	r5, r0
    8274:	e1a00006 	mov	r0, r6
    8278:	eb0004a6 	bl	9518 <equiv_refresh>
    827c:	e1a00005 	mov	r0, r5
    8280:	eb0004a4 	bl	9518 <equiv_refresh>
    8284:	e1a00004 	mov	r0, r4
    8288:	eb0004a2 	bl	9518 <equiv_refresh>
    828c:	eb00050a 	bl	96bc <pre_run>
    8290:	e1a0100a 	mov	r1, sl
    8294:	e1a00009 	mov	r0, r9
    8298:	eb000a34 	bl	ab70 <printk>
    829c:	e59f0078 	ldr	r0, [pc, #120]	; 831c <notmain+0x158>
    82a0:	eb000a32 	bl	ab70 <printk>
    82a4:	e1a00008 	mov	r0, r8
    82a8:	eb00049a 	bl	9518 <equiv_refresh>
    82ac:	e1a00007 	mov	r0, r7
    82b0:	eb000498 	bl	9518 <equiv_refresh>
    82b4:	e1a00006 	mov	r0, r6
    82b8:	eb000496 	bl	9518 <equiv_refresh>
    82bc:	e1a00005 	mov	r0, r5
    82c0:	eb000494 	bl	9518 <equiv_refresh>
    82c4:	e1a00004 	mov	r0, r4
    82c8:	eb000492 	bl	9518 <equiv_refresh>
    82cc:	eb0004fa 	bl	96bc <pre_run>
    82d0:	e1a0100a 	mov	r1, sl
    82d4:	e1a00009 	mov	r0, r9
    82d8:	eb000a24 	bl	ab70 <printk>
    82dc:	e59f003c 	ldr	r0, [pc, #60]	; 8320 <notmain+0x15c>
    82e0:	eb000a22 	bl	ab70 <printk>
    82e4:	eb000b51 	bl	b030 <clean_reboot>
    82e8:	0f86a29e 	.word	0x0f86a29e
    82ec:	00008108 	.word	0x00008108
    82f0:	4e8e6d76 	.word	0x4e8e6d76
    82f4:	00008114 	.word	0x00008114
    82f8:	0000bcd8 	.word	0x0000bcd8
    82fc:	0000bc18 	.word	0x0000bc18
    8300:	0000bc84 	.word	0x0000bc84
    8304:	72969027 	.word	0x72969027
    8308:	00008038 	.word	0x00008038
    830c:	448ce9eb 	.word	0x448ce9eb
    8310:	000080a0 	.word	0x000080a0
    8314:	b606796e 	.word	0xb606796e
    8318:	00008044 	.word	0x00008044
    831c:	0000bc9c 	.word	0x0000bc9c
    8320:	0000bcb4 	.word	0x0000bcb4

00008324 <mode_get>:
    8324:	e200001f 	and	r0, r0, #31, 0
    8328:	e3500012 	cmp	r0, #18, 0
    832c:	13500010 	cmpne	r0, #16, 0
    8330:	012fff1e 	bxeq	lr
    8334:	e3500017 	cmp	r0, #23, 0
    8338:	13500013 	cmpne	r0, #19, 0
    833c:	012fff1e 	bxeq	lr
    8340:	e350001f 	cmp	r0, #31, 0
    8344:	1350001b 	cmpne	r0, #27, 0
    8348:	012fff1e 	bxeq	lr
    834c:	e52de004 	push	{lr}		; (str lr, [sp, #-4]!)
    8350:	e24dd00c 	sub	sp, sp, #12, 0
    8354:	e58d0004 	str	r0, [sp, #4]
    8358:	e58d0000 	str	r0, [sp]
    835c:	e3a03013 	mov	r3, #19, 0
    8360:	e59f200c 	ldr	r2, [pc, #12]	; 8374 <mode_get+0x50>
    8364:	e59f100c 	ldr	r1, [pc, #12]	; 8378 <mode_get+0x54>
    8368:	e59f000c 	ldr	r0, [pc, #12]	; 837c <mode_get+0x58>
    836c:	eb0009ff 	bl	ab70 <printk>
    8370:	eb000b2e 	bl	b030 <clean_reboot>
    8374:	0000c010 	.word	0x0000c010
    8378:	0000bce0 	.word	0x0000bce0
    837c:	0000bd24 	.word	0x0000bd24

00008380 <switchto>:
    8380:	e92d4010 	push	{r4, lr}
    8384:	e1a04000 	mov	r4, r0
    8388:	e5900040 	ldr	r0, [r0, #64]	; 0x40
    838c:	ebffffe4 	bl	8324 <mode_get>
    8390:	e3500010 	cmp	r0, #16, 0
    8394:	0a000001 	beq	83a0 <switchto+0x20>
    8398:	e1a00004 	mov	r0, r4
    839c:	eb00016d 	bl	8958 <switchto_priv_asm>
    83a0:	e1a00004 	mov	r0, r4
    83a4:	eb00015a 	bl	8914 <switchto_user_asm>

000083a8 <prefetch_abort_full_except>:
    83a8:	e52de004 	push	{lr}		; (str lr, [sp, #-4]!)
    83ac:	e24dd00c 	sub	sp, sp, #12, 0
    83b0:	e5903040 	ldr	r3, [r0, #64]	; 0x40
    83b4:	e1530001 	cmp	r3, r1
    83b8:	1a000016 	bne	8418 <prefetch_abort_full_except+0x70>
    83bc:	e1a04000 	mov	r4, r0
    83c0:	e1a05001 	mov	r5, r1
    83c4:	e590303c 	ldr	r3, [r0, #60]	; 0x3c
    83c8:	e1530002 	cmp	r3, r2
    83cc:	1a000019 	bne	8438 <prefetch_abort_full_except+0x90>
    83d0:	e59f309c 	ldr	r3, [pc, #156]	; 8474 <prefetch_abort_full_except+0xcc>
    83d4:	e5933000 	ldr	r3, [r3]
    83d8:	e3530000 	cmp	r3, #0, 0
    83dc:	0a00001d 	beq	8458 <prefetch_abort_full_except+0xb0>
    83e0:	e1a00001 	mov	r0, r1
    83e4:	ebffffce 	bl	8324 <mode_get>
    83e8:	e3500010 	cmp	r0, #16, 0
    83ec:	0a000003 	beq	8400 <prefetch_abort_full_except+0x58>
    83f0:	e2842038 	add	r2, r4, #56, 0	; 0x38
    83f4:	e2841034 	add	r1, r4, #52, 0	; 0x34
    83f8:	e1a00005 	mov	r0, r5
    83fc:	eb00012e 	bl	88bc <priv_get_sp_lr_asm>
    8400:	e59f306c 	ldr	r3, [pc, #108]	; 8474 <prefetch_abort_full_except+0xcc>
    8404:	e5933000 	ldr	r3, [r3]
    8408:	e1a00004 	mov	r0, r4
    840c:	e12fff33 	blx	r3
    8410:	e1a00004 	mov	r0, r4
    8414:	ebffffd9 	bl	8380 <switchto>
    8418:	e59f3058 	ldr	r3, [pc, #88]	; 8478 <prefetch_abort_full_except+0xd0>
    841c:	e58d3000 	str	r3, [sp]
    8420:	e3a03032 	mov	r3, #50, 0	; 0x32
    8424:	e59f2050 	ldr	r2, [pc, #80]	; 847c <prefetch_abort_full_except+0xd4>
    8428:	e59f1050 	ldr	r1, [pc, #80]	; 8480 <prefetch_abort_full_except+0xd8>
    842c:	e59f0050 	ldr	r0, [pc, #80]	; 8484 <prefetch_abort_full_except+0xdc>
    8430:	eb0009ce 	bl	ab70 <printk>
    8434:	eb000afd 	bl	b030 <clean_reboot>
    8438:	e59f3048 	ldr	r3, [pc, #72]	; 8488 <prefetch_abort_full_except+0xe0>
    843c:	e58d3000 	str	r3, [sp]
    8440:	e3a03033 	mov	r3, #51, 0	; 0x33
    8444:	e59f2030 	ldr	r2, [pc, #48]	; 847c <prefetch_abort_full_except+0xd4>
    8448:	e59f1030 	ldr	r1, [pc, #48]	; 8480 <prefetch_abort_full_except+0xd8>
    844c:	e59f0030 	ldr	r0, [pc, #48]	; 8484 <prefetch_abort_full_except+0xdc>
    8450:	eb0009c6 	bl	ab70 <printk>
    8454:	eb000af5 	bl	b030 <clean_reboot>
    8458:	e58d2000 	str	r2, [sp]
    845c:	e3a03036 	mov	r3, #54, 0	; 0x36
    8460:	e59f2014 	ldr	r2, [pc, #20]	; 847c <prefetch_abort_full_except+0xd4>
    8464:	e59f1014 	ldr	r1, [pc, #20]	; 8480 <prefetch_abort_full_except+0xd8>
    8468:	e59f001c 	ldr	r0, [pc, #28]	; 848c <prefetch_abort_full_except+0xe4>
    846c:	eb0009bf 	bl	ab70 <printk>
    8470:	eb000aee 	bl	b030 <clean_reboot>
    8474:	0000ce7c 	.word	0x0000ce7c
    8478:	0000bd94 	.word	0x0000bd94
    847c:	0000c01c 	.word	0x0000c01c
    8480:	0000bd50 	.word	0x0000bd50
    8484:	0000bd64 	.word	0x0000bd64
    8488:	0000bdb0 	.word	0x0000bdb0
    848c:	0000bdc8 	.word	0x0000bdc8

00008490 <data_abort_full_except>:
    8490:	e52de004 	push	{lr}		; (str lr, [sp, #-4]!)
    8494:	e24dd00c 	sub	sp, sp, #12, 0
    8498:	e5903040 	ldr	r3, [r0, #64]	; 0x40
    849c:	e1530001 	cmp	r3, r1
    84a0:	1a000016 	bne	8500 <data_abort_full_except+0x70>
    84a4:	e1a04000 	mov	r4, r0
    84a8:	e1a05001 	mov	r5, r1
    84ac:	e590303c 	ldr	r3, [r0, #60]	; 0x3c
    84b0:	e1530002 	cmp	r3, r2
    84b4:	1a000019 	bne	8520 <data_abort_full_except+0x90>
    84b8:	e59f309c 	ldr	r3, [pc, #156]	; 855c <data_abort_full_except+0xcc>
    84bc:	e5933004 	ldr	r3, [r3, #4]
    84c0:	e3530000 	cmp	r3, #0, 0
    84c4:	0a00001d 	beq	8540 <data_abort_full_except+0xb0>
    84c8:	e1a00001 	mov	r0, r1
    84cc:	ebffff94 	bl	8324 <mode_get>
    84d0:	e3500010 	cmp	r0, #16, 0
    84d4:	0a000003 	beq	84e8 <data_abort_full_except+0x58>
    84d8:	e2842038 	add	r2, r4, #56, 0	; 0x38
    84dc:	e2841034 	add	r1, r4, #52, 0	; 0x34
    84e0:	e1a00005 	mov	r0, r5
    84e4:	eb0000f4 	bl	88bc <priv_get_sp_lr_asm>
    84e8:	e59f306c 	ldr	r3, [pc, #108]	; 855c <data_abort_full_except+0xcc>
    84ec:	e5933004 	ldr	r3, [r3, #4]
    84f0:	e1a00004 	mov	r0, r4
    84f4:	e12fff33 	blx	r3
    84f8:	e1a00004 	mov	r0, r4
    84fc:	ebffff9f 	bl	8380 <switchto>
    8500:	e59f3058 	ldr	r3, [pc, #88]	; 8560 <data_abort_full_except+0xd0>
    8504:	e58d3000 	str	r3, [sp]
    8508:	e3a0303f 	mov	r3, #63, 0	; 0x3f
    850c:	e59f2050 	ldr	r2, [pc, #80]	; 8564 <data_abort_full_except+0xd4>
    8510:	e59f1050 	ldr	r1, [pc, #80]	; 8568 <data_abort_full_except+0xd8>
    8514:	e59f0050 	ldr	r0, [pc, #80]	; 856c <data_abort_full_except+0xdc>
    8518:	eb000994 	bl	ab70 <printk>
    851c:	eb000ac3 	bl	b030 <clean_reboot>
    8520:	e59f3048 	ldr	r3, [pc, #72]	; 8570 <data_abort_full_except+0xe0>
    8524:	e58d3000 	str	r3, [sp]
    8528:	e3a03040 	mov	r3, #64, 0	; 0x40
    852c:	e59f2030 	ldr	r2, [pc, #48]	; 8564 <data_abort_full_except+0xd4>
    8530:	e59f1030 	ldr	r1, [pc, #48]	; 8568 <data_abort_full_except+0xd8>
    8534:	e59f0030 	ldr	r0, [pc, #48]	; 856c <data_abort_full_except+0xdc>
    8538:	eb00098c 	bl	ab70 <printk>
    853c:	eb000abb 	bl	b030 <clean_reboot>
    8540:	e58d2000 	str	r2, [sp]
    8544:	e3a03043 	mov	r3, #67, 0	; 0x43
    8548:	e59f2014 	ldr	r2, [pc, #20]	; 8564 <data_abort_full_except+0xd4>
    854c:	e59f1014 	ldr	r1, [pc, #20]	; 8568 <data_abort_full_except+0xd8>
    8550:	e59f001c 	ldr	r0, [pc, #28]	; 8574 <data_abort_full_except+0xe4>
    8554:	eb000985 	bl	ab70 <printk>
    8558:	eb000ab4 	bl	b030 <clean_reboot>
    855c:	0000ce7c 	.word	0x0000ce7c
    8560:	0000bd94 	.word	0x0000bd94
    8564:	0000c038 	.word	0x0000c038
    8568:	0000bd50 	.word	0x0000bd50
    856c:	0000bd64 	.word	0x0000bd64
    8570:	0000bdb0 	.word	0x0000bdb0
    8574:	0000be00 	.word	0x0000be00

00008578 <syscall_full_except>:
    8578:	e52de004 	push	{lr}		; (str lr, [sp, #-4]!)
    857c:	e24dd014 	sub	sp, sp, #20, 0
    8580:	e5903040 	ldr	r3, [r0, #64]	; 0x40
    8584:	e1530001 	cmp	r3, r1
    8588:	1a00000c 	bne	85c0 <syscall_full_except+0x48>
    858c:	e1a04000 	mov	r4, r0
    8590:	e1a05002 	mov	r5, r2
    8594:	e590303c 	ldr	r3, [r0, #60]	; 0x3c
    8598:	e1530002 	cmp	r3, r2
    859c:	0a00000f 	beq	85e0 <syscall_full_except+0x68>
    85a0:	e59f30d0 	ldr	r3, [pc, #208]	; 8678 <syscall_full_except+0x100>
    85a4:	e58d3000 	str	r3, [sp]
    85a8:	e3a0304e 	mov	r3, #78, 0	; 0x4e
    85ac:	e59f20c8 	ldr	r2, [pc, #200]	; 867c <syscall_full_except+0x104>
    85b0:	e59f10c8 	ldr	r1, [pc, #200]	; 8680 <syscall_full_except+0x108>
    85b4:	e59f00c8 	ldr	r0, [pc, #200]	; 8684 <syscall_full_except+0x10c>
    85b8:	eb00096c 	bl	ab70 <printk>
    85bc:	eb000a9b 	bl	b030 <clean_reboot>
    85c0:	e59f30c0 	ldr	r3, [pc, #192]	; 8688 <syscall_full_except+0x110>
    85c4:	e58d3000 	str	r3, [sp]
    85c8:	e3a0304d 	mov	r3, #77, 0	; 0x4d
    85cc:	e59f20a8 	ldr	r2, [pc, #168]	; 867c <syscall_full_except+0x104>
    85d0:	e59f10a8 	ldr	r1, [pc, #168]	; 8680 <syscall_full_except+0x108>
    85d4:	e59f00a8 	ldr	r0, [pc, #168]	; 8684 <syscall_full_except+0x10c>
    85d8:	eb000964 	bl	ab70 <printk>
    85dc:	eb000a93 	bl	b030 <clean_reboot>
    85e0:	e1a00001 	mov	r0, r1
    85e4:	ebffff4e 	bl	8324 <mode_get>
    85e8:	e3500010 	cmp	r0, #16, 0
    85ec:	1a00000c 	bne	8624 <syscall_full_except+0xac>
    85f0:	e28d200c 	add	r2, sp, #12, 0
    85f4:	e59f3090 	ldr	r3, [pc, #144]	; 868c <syscall_full_except+0x114>
    85f8:	e1520003 	cmp	r2, r3
    85fc:	9a00000e 	bls	863c <syscall_full_except+0xc4>
    8600:	e59f3088 	ldr	r3, [pc, #136]	; 8690 <syscall_full_except+0x118>
    8604:	e5933008 	ldr	r3, [r3, #8]
    8608:	e3530000 	cmp	r3, #0, 0
    860c:	0a000012 	beq	865c <syscall_full_except+0xe4>
    8610:	e1a00004 	mov	r0, r4
    8614:	e12fff33 	blx	r3
    8618:	e5840000 	str	r0, [r4]
    861c:	e1a00004 	mov	r0, r4
    8620:	ebffff56 	bl	8380 <switchto>
    8624:	e3a03051 	mov	r3, #81, 0	; 0x51
    8628:	e59f204c 	ldr	r2, [pc, #76]	; 867c <syscall_full_except+0x104>
    862c:	e59f104c 	ldr	r1, [pc, #76]	; 8680 <syscall_full_except+0x108>
    8630:	e59f005c 	ldr	r0, [pc, #92]	; 8694 <syscall_full_except+0x11c>
    8634:	eb00094d 	bl	ab70 <printk>
    8638:	eb000a7c 	bl	b030 <clean_reboot>
    863c:	e59f3054 	ldr	r3, [pc, #84]	; 8698 <syscall_full_except+0x120>
    8640:	e58d3000 	str	r3, [sp]
    8644:	e3a03056 	mov	r3, #86, 0	; 0x56
    8648:	e59f202c 	ldr	r2, [pc, #44]	; 867c <syscall_full_except+0x104>
    864c:	e59f102c 	ldr	r1, [pc, #44]	; 8680 <syscall_full_except+0x108>
    8650:	e59f0044 	ldr	r0, [pc, #68]	; 869c <syscall_full_except+0x124>
    8654:	eb000945 	bl	ab70 <printk>
    8658:	eb000a74 	bl	b030 <clean_reboot>
    865c:	e58d5000 	str	r5, [sp]
    8660:	e3a0305b 	mov	r3, #91, 0	; 0x5b
    8664:	e59f2010 	ldr	r2, [pc, #16]	; 867c <syscall_full_except+0x104>
    8668:	e59f1010 	ldr	r1, [pc, #16]	; 8680 <syscall_full_except+0x108>
    866c:	e59f002c 	ldr	r0, [pc, #44]	; 86a0 <syscall_full_except+0x128>
    8670:	eb00093e 	bl	ab70 <printk>
    8674:	eb000a6d 	bl	b030 <clean_reboot>
    8678:	0000bdb0 	.word	0x0000bdb0
    867c:	0000c050 	.word	0x0000c050
    8680:	0000bd50 	.word	0x0000bd50
    8684:	0000bd64 	.word	0x0000bd64
    8688:	0000bd94 	.word	0x0000bd94
    868c:	000186a0 	.word	0x000186a0
    8690:	0000ce7c 	.word	0x0000ce7c
    8694:	0000be34 	.word	0x0000be34
    8698:	0000beb4 	.word	0x0000beb4
    869c:	0000be70 	.word	0x0000be70
    86a0:	0000becc 	.word	0x0000becc

000086a4 <interrupt_except>:
    86a4:	e92d4010 	push	{r4, lr}
    86a8:	e59f3008 	ldr	r3, [pc, #8]	; 86b8 <interrupt_except+0x14>
    86ac:	e593300c 	ldr	r3, [r3, #12]
    86b0:	e12fff33 	blx	r3
    86b4:	e8bd8010 	pop	{r4, pc}
    86b8:	0000ce7c 	.word	0x0000ce7c

000086bc <full_except_set_prefetch>:
    86bc:	e59f300c 	ldr	r3, [pc, #12]	; 86d0 <full_except_set_prefetch+0x14>
    86c0:	e5932000 	ldr	r2, [r3]
    86c4:	e5830000 	str	r0, [r3]
    86c8:	e1a00002 	mov	r0, r2
    86cc:	e12fff1e 	bx	lr
    86d0:	0000ce7c 	.word	0x0000ce7c

000086d4 <full_except_set_data_abort>:
    86d4:	e59f300c 	ldr	r3, [pc, #12]	; 86e8 <full_except_set_data_abort+0x14>
    86d8:	e5932004 	ldr	r2, [r3, #4]
    86dc:	e5830004 	str	r0, [r3, #4]
    86e0:	e1a00002 	mov	r0, r2
    86e4:	e12fff1e 	bx	lr
    86e8:	0000ce7c 	.word	0x0000ce7c

000086ec <full_except_set_syscall>:
    86ec:	e59f300c 	ldr	r3, [pc, #12]	; 8700 <full_except_set_syscall+0x14>
    86f0:	e5932008 	ldr	r2, [r3, #8]
    86f4:	e5830008 	str	r0, [r3, #8]
    86f8:	e1a00002 	mov	r0, r2
    86fc:	e12fff1e 	bx	lr
    8700:	0000ce7c 	.word	0x0000ce7c

00008704 <full_except_set_interrupt>:
    8704:	e59f300c 	ldr	r3, [pc, #12]	; 8718 <full_except_set_interrupt+0x14>
    8708:	e593200c 	ldr	r2, [r3, #12]
    870c:	e583000c 	str	r0, [r3, #12]
    8710:	e1a00002 	mov	r0, r2
    8714:	e12fff1e 	bx	lr
    8718:	0000ce7c 	.word	0x0000ce7c

0000871c <full_except_install>:
    871c:	e52de004 	push	{lr}		; (str lr, [sp, #-4]!)
    8720:	e24dd00c 	sub	sp, sp, #12, 0
    8724:	e3500000 	cmp	r0, #0, 0
    8728:	1a000007 	bne	874c <full_except_install+0x30>
    872c:	ee1c3f10 	mrc	15, 0, r3, cr12, cr0, {0}
    8730:	e3530000 	cmp	r3, #0, 0
    8734:	0a00002a 	beq	87e4 <full_except_install+0xc8>
    8738:	e59f2158 	ldr	r2, [pc, #344]	; 8898 <full_except_install+0x17c>
    873c:	e1530002 	cmp	r3, r2
    8740:	1a00004d 	bne	887c <full_except_install+0x160>
    8744:	e28dd00c 	add	sp, sp, #12, 0
    8748:	e49df004 	pop	{pc}		; (ldr pc, [sp], #4)
    874c:	e59f3144 	ldr	r3, [pc, #324]	; 8898 <full_except_install+0x17c>
    8750:	e313001f 	tst	r3, #31, 0
    8754:	0a000007 	beq	8778 <full_except_install+0x5c>
    8758:	e59f3138 	ldr	r3, [pc, #312]	; 8898 <full_except_install+0x17c>
    875c:	e58d3000 	str	r3, [sp]
    8760:	e3a0302a 	mov	r3, #42, 0	; 0x2a
    8764:	e59f2130 	ldr	r2, [pc, #304]	; 889c <full_except_install+0x180>
    8768:	e59f1130 	ldr	r1, [pc, #304]	; 88a0 <full_except_install+0x184>
    876c:	e59f0130 	ldr	r0, [pc, #304]	; 88a4 <full_except_install+0x188>
    8770:	eb0008fe 	bl	ab70 <printk>
    8774:	eb000a2d 	bl	b030 <clean_reboot>
    8778:	ee1c2f10 	mrc	15, 0, r2, cr12, cr0, {0}
    877c:	e1520003 	cmp	r2, r3
    8780:	0affffef 	beq	8744 <full_except_install+0x28>
    8784:	e3520000 	cmp	r2, #0, 0
    8788:	1a00000e 	bne	87c8 <full_except_install+0xac>
    878c:	ee0c3f10 	mcr	15, 0, r3, cr12, cr0, {0}
    8790:	e3a03000 	mov	r3, #0, 0
    8794:	ee073f95 	mcr	15, 0, r3, cr7, cr5, {4}
    8798:	ee1c3f10 	mrc	15, 0, r3, cr12, cr0, {0}
    879c:	e59f20f4 	ldr	r2, [pc, #244]	; 8898 <full_except_install+0x17c>
    87a0:	e1530002 	cmp	r3, r2
    87a4:	0affffe6 	beq	8744 <full_except_install+0x28>
    87a8:	e58d3004 	str	r3, [sp, #4]
    87ac:	e58d2000 	str	r2, [sp]
    87b0:	e3a0303a 	mov	r3, #58, 0	; 0x3a
    87b4:	e59f20e0 	ldr	r2, [pc, #224]	; 889c <full_except_install+0x180>
    87b8:	e59f10e0 	ldr	r1, [pc, #224]	; 88a0 <full_except_install+0x184>
    87bc:	e59f00e4 	ldr	r0, [pc, #228]	; 88a8 <full_except_install+0x18c>
    87c0:	eb0008ea 	bl	ab70 <printk>
    87c4:	eb000a19 	bl	b030 <clean_reboot>
    87c8:	e58d2000 	str	r2, [sp]
    87cc:	e3a03032 	mov	r3, #50, 0	; 0x32
    87d0:	e59f20c4 	ldr	r2, [pc, #196]	; 889c <full_except_install+0x180>
    87d4:	e59f10c4 	ldr	r1, [pc, #196]	; 88a0 <full_except_install+0x184>
    87d8:	e59f00cc 	ldr	r0, [pc, #204]	; 88ac <full_except_install+0x190>
    87dc:	eb0008e3 	bl	ab70 <printk>
    87e0:	eb000a12 	bl	b030 <clean_reboot>
    87e4:	e59f30ac 	ldr	r3, [pc, #172]	; 8898 <full_except_install+0x17c>
    87e8:	e313001f 	tst	r3, #31, 0
    87ec:	0a000007 	beq	8810 <full_except_install+0xf4>
    87f0:	e59f30a0 	ldr	r3, [pc, #160]	; 8898 <full_except_install+0x17c>
    87f4:	e58d3000 	str	r3, [sp]
    87f8:	e3a0302a 	mov	r3, #42, 0	; 0x2a
    87fc:	e59f2098 	ldr	r2, [pc, #152]	; 889c <full_except_install+0x180>
    8800:	e59f1098 	ldr	r1, [pc, #152]	; 88a0 <full_except_install+0x184>
    8804:	e59f0098 	ldr	r0, [pc, #152]	; 88a4 <full_except_install+0x188>
    8808:	eb0008d8 	bl	ab70 <printk>
    880c:	eb000a07 	bl	b030 <clean_reboot>
    8810:	ee1c2f10 	mrc	15, 0, r2, cr12, cr0, {0}
    8814:	e1520003 	cmp	r2, r3
    8818:	0affffc9 	beq	8744 <full_except_install+0x28>
    881c:	e3520000 	cmp	r2, #0, 0
    8820:	1a00000e 	bne	8860 <full_except_install+0x144>
    8824:	ee0c3f10 	mcr	15, 0, r3, cr12, cr0, {0}
    8828:	e3a03000 	mov	r3, #0, 0
    882c:	ee073f95 	mcr	15, 0, r3, cr7, cr5, {4}
    8830:	ee1c3f10 	mrc	15, 0, r3, cr12, cr0, {0}
    8834:	e59f205c 	ldr	r2, [pc, #92]	; 8898 <full_except_install+0x17c>
    8838:	e1530002 	cmp	r3, r2
    883c:	0affffc0 	beq	8744 <full_except_install+0x28>
    8840:	e58d3004 	str	r3, [sp, #4]
    8844:	e58d2000 	str	r2, [sp]
    8848:	e3a0303a 	mov	r3, #58, 0	; 0x3a
    884c:	e59f2048 	ldr	r2, [pc, #72]	; 889c <full_except_install+0x180>
    8850:	e59f1048 	ldr	r1, [pc, #72]	; 88a0 <full_except_install+0x184>
    8854:	e59f004c 	ldr	r0, [pc, #76]	; 88a8 <full_except_install+0x18c>
    8858:	eb0008c4 	bl	ab70 <printk>
    885c:	eb0009f3 	bl	b030 <clean_reboot>
    8860:	e58d2000 	str	r2, [sp]
    8864:	e3a03032 	mov	r3, #50, 0	; 0x32
    8868:	e59f202c 	ldr	r2, [pc, #44]	; 889c <full_except_install+0x180>
    886c:	e59f102c 	ldr	r1, [pc, #44]	; 88a0 <full_except_install+0x184>
    8870:	e59f0034 	ldr	r0, [pc, #52]	; 88ac <full_except_install+0x190>
    8874:	eb0008bd 	bl	ab70 <printk>
    8878:	eb0009ec 	bl	b030 <clean_reboot>
    887c:	e58d3000 	str	r3, [sp]
    8880:	e3a03095 	mov	r3, #149, 0	; 0x95
    8884:	e59f2024 	ldr	r2, [pc, #36]	; 88b0 <full_except_install+0x194>
    8888:	e59f1024 	ldr	r1, [pc, #36]	; 88b4 <full_except_install+0x198>
    888c:	e59f0024 	ldr	r0, [pc, #36]	; 88b8 <full_except_install+0x19c>
    8890:	eb0008b6 	bl	ab70 <printk>
    8894:	eb0009e5 	bl	b030 <clean_reboot>
    8898:	00008c20 	.word	0x00008c20
    889c:	0000c064 	.word	0x0000c064
    88a0:	0000befc 	.word	0x0000befc
    88a4:	0000bf40 	.word	0x0000bf40
    88a8:	0000bfa0 	.word	0x0000bfa0
    88ac:	0000bf68 	.word	0x0000bf68
    88b0:	0000c074 	.word	0x0000c074
    88b4:	0000bd50 	.word	0x0000bd50
    88b8:	0000bfcc 	.word	0x0000bfcc

000088bc <priv_get_sp_lr_asm>:
    88bc:	e10f3000 	mrs	r3, CPSR
    88c0:	e121f000 	msr	CPSR_c, r0
    88c4:	e3a0c000 	mov	ip, #0, 0
    88c8:	ee07cf95 	mcr	15, 0, ip, cr7, cr5, {4}
    88cc:	e8812000 	stm	r1, {sp}
    88d0:	e8824000 	stm	r2, {lr}
    88d4:	e121f003 	msr	CPSR_c, r3
    88d8:	e3a0c000 	mov	ip, #0, 0
    88dc:	ee07cf95 	mcr	15, 0, ip, cr7, cr5, {4}
    88e0:	e12fff1e 	bx	lr
    88e4:	e3a0d409 	mov	sp, #150994944	; 0x9000000
    88e8:	e24f0004 	sub	r0, pc, #4, 0
    88ec:	e28f1000 	add	r1, pc, #0, 0
    88f0:	ea0009a7 	b	af94 <asm_not_reached_helper>
    88f4:	74697773 	.word	0x74697773
    88f8:	6f746863 	.word	0x6f746863
    88fc:	6d73612d 	.word	0x6d73612d
    8900:	323a532e 	.word	0x323a532e
    8904:	4e3c3a34 	.word	0x4e3c3a34
    8908:	5220544f 	.word	0x5220544f
    890c:	48434145 	.word	0x48434145
    8910:	003e4445 	.word	0x003e4445

00008914 <switchto_user_asm>:
    8914:	e3a0100f 	mov	r1, #15, 0
    8918:	e1a01101 	lsl	r1, r1, #2
    891c:	e080d001 	add	sp, r0, r1
    8920:	e8d07fff 	ldm	r0, {r0, r1, r2, r3, r4, r5, r6, r7, r8, r9, sl, fp, ip, sp, lr}^
    8924:	f89d0a00 	rfeia	sp
    8928:	e3a0d409 	mov	sp, #150994944	; 0x9000000
    892c:	e24f0004 	sub	r0, pc, #4, 0
    8930:	e28f1000 	add	r1, pc, #0, 0
    8934:	ea000996 	b	af94 <asm_not_reached_helper>
    8938:	74697773 	.word	0x74697773
    893c:	6f746863 	.word	0x6f746863
    8940:	6d73612d 	.word	0x6d73612d
    8944:	343a532e 	.word	0x343a532e
    8948:	4e3c3a30 	.word	0x4e3c3a30
    894c:	5220544f 	.word	0x5220544f
    8950:	48434145 	.word	0x48434145
    8954:	003e4445 	.word	0x003e4445

00008958 <switchto_priv_asm>:
    8958:	e5901040 	ldr	r1, [r0, #64]	; 0x40
    895c:	e12ff001 	msr	CPSR_fsxc, r1
    8960:	e890ffff 	ldm	r0, {r0, r1, r2, r3, r4, r5, r6, r7, r8, r9, sl, fp, ip, sp, lr, pc}
    8964:	e3a0d409 	mov	sp, #150994944	; 0x9000000
    8968:	e24f0004 	sub	r0, pc, #4, 0
    896c:	e28f1000 	add	r1, pc, #0, 0
    8970:	ea000987 	b	af94 <asm_not_reached_helper>
    8974:	74697773 	.word	0x74697773
    8978:	6f746863 	.word	0x6f746863
    897c:	6d73612d 	.word	0x6d73612d
    8980:	353a532e 	.word	0x353a532e
    8984:	4e3c3a30 	.word	0x4e3c3a30
    8988:	5220544f 	.word	0x5220544f
    898c:	48434145 	.word	0x48434145
    8990:	003e4445 	.word	0x003e4445

00008994 <cswitchto_priv_asm>:
    8994:	e5804010 	str	r4, [r0, #16]
    8998:	e5805014 	str	r5, [r0, #20]
    899c:	e5806018 	str	r6, [r0, #24]
    89a0:	e580701c 	str	r7, [r0, #28]
    89a4:	e5808020 	str	r8, [r0, #32]
    89a8:	e5809024 	str	r9, [r0, #36]	; 0x24
    89ac:	e580a028 	str	sl, [r0, #40]	; 0x28
    89b0:	e580b02c 	str	fp, [r0, #44]	; 0x2c
    89b4:	e580d034 	str	sp, [r0, #52]	; 0x34
    89b8:	e580e038 	str	lr, [r0, #56]	; 0x38
    89bc:	e580e03c 	str	lr, [r0, #60]	; 0x3c
    89c0:	e10fc000 	mrs	ip, CPSR
    89c4:	e580c040 	str	ip, [r0, #64]	; 0x40
    89c8:	e1a00001 	mov	r0, r1
    89cc:	ebffffe1 	bl	8958 <switchto_priv_asm>
    89d0:	e3a0d409 	mov	sp, #150994944	; 0x9000000
    89d4:	e24f0004 	sub	r0, pc, #4, 0
    89d8:	e28f1000 	add	r1, pc, #0, 0
    89dc:	ea00096c 	b	af94 <asm_not_reached_helper>
    89e0:	74697773 	.word	0x74697773
    89e4:	6f746863 	.word	0x6f746863
    89e8:	6d73612d 	.word	0x6d73612d
    89ec:	393a532e 	.word	0x393a532e
    89f0:	4e3c3a35 	.word	0x4e3c3a35
    89f4:	5220544f 	.word	0x5220544f
    89f8:	48434145 	.word	0x48434145
    89fc:	003e4445 	.word	0x003e4445

00008a00 <cswitchto_user_asm>:
    8a00:	e5804010 	str	r4, [r0, #16]
    8a04:	e5805014 	str	r5, [r0, #20]
    8a08:	e5806018 	str	r6, [r0, #24]
    8a0c:	e580701c 	str	r7, [r0, #28]
    8a10:	e5808020 	str	r8, [r0, #32]
    8a14:	e5809024 	str	r9, [r0, #36]	; 0x24
    8a18:	e580a028 	str	sl, [r0, #40]	; 0x28
    8a1c:	e580b02c 	str	fp, [r0, #44]	; 0x2c
    8a20:	e580d034 	str	sp, [r0, #52]	; 0x34
    8a24:	e580e038 	str	lr, [r0, #56]	; 0x38
    8a28:	e580e03c 	str	lr, [r0, #60]	; 0x3c
    8a2c:	e10fc000 	mrs	ip, CPSR
    8a30:	e580c040 	str	ip, [r0, #64]	; 0x40
    8a34:	e1a00001 	mov	r0, r1
    8a38:	ebffffb5 	bl	8914 <switchto_user_asm>
    8a3c:	e3a0d409 	mov	sp, #150994944	; 0x9000000
    8a40:	e24f0004 	sub	r0, pc, #4, 0
    8a44:	e28f1000 	add	r1, pc, #0, 0
    8a48:	ea000951 	b	af94 <asm_not_reached_helper>
    8a4c:	74697773 	.word	0x74697773
    8a50:	6f746863 	.word	0x6f746863
    8a54:	6d73612d 	.word	0x6d73612d
    8a58:	313a532e 	.word	0x313a532e
    8a5c:	3c3a3832 	.word	0x3c3a3832
    8a60:	20544f4e 	.word	0x20544f4e
    8a64:	43414552 	.word	0x43414552
    8a68:	3e444548 	.word	0x3e444548
	...

00008a80 <reset>:
    8a80:	e24ee004 	sub	lr, lr, #4, 0
    8a84:	e3a0d409 	mov	sp, #150994944	; 0x9000000
    8a88:	e92d5fff 	push	{r0, r1, r2, r3, r4, r5, r6, r7, r8, r9, sl, fp, ip, lr}
    8a8c:	e1a0000e 	mov	r0, lr
    8a90:	eb0009f4 	bl	b268 <reset_vector>
    8a94:	e8bd5fff 	pop	{r0, r1, r2, r3, r4, r5, r6, r7, r8, r9, sl, fp, ip, lr}
    8a98:	e1b0f00e 	movs	pc, lr

00008a9c <undef>:
    8a9c:	e24ee004 	sub	lr, lr, #4, 0
    8aa0:	e3a0d409 	mov	sp, #150994944	; 0x9000000
    8aa4:	e92d5fff 	push	{r0, r1, r2, r3, r4, r5, r6, r7, r8, r9, sl, fp, ip, lr}
    8aa8:	e1a0000e 	mov	r0, lr
    8aac:	eb000a0b 	bl	b2e0 <undefined_instruction_vector>
    8ab0:	e8bd5fff 	pop	{r0, r1, r2, r3, r4, r5, r6, r7, r8, r9, sl, fp, ip, lr}
    8ab4:	e1b0f00e 	movs	pc, lr

00008ab8 <prefetch_abort>:
    8ab8:	e24ee004 	sub	lr, lr, #4, 0
    8abc:	e3a0d409 	mov	sp, #150994944	; 0x9000000
    8ac0:	e92d5fff 	push	{r0, r1, r2, r3, r4, r5, r6, r7, r8, r9, sl, fp, ip, lr}
    8ac4:	e1a0000e 	mov	r0, lr
    8ac8:	eb0009d7 	bl	b22c <prefetch_abort_vector>
    8acc:	e8bd5fff 	pop	{r0, r1, r2, r3, r4, r5, r6, r7, r8, r9, sl, fp, ip, lr}
    8ad0:	e1b0f00e 	movs	pc, lr

00008ad4 <interrupt>:
    8ad4:	e24ee004 	sub	lr, lr, #4, 0
    8ad8:	e3a0d409 	mov	sp, #150994944	; 0x9000000
    8adc:	e92d5fff 	push	{r0, r1, r2, r3, r4, r5, r6, r7, r8, r9, sl, fp, ip, lr}
    8ae0:	e1a0000e 	mov	r0, lr
    8ae4:	eb0009b2 	bl	b1b4 <int_vector>
    8ae8:	e8bd5fff 	pop	{r0, r1, r2, r3, r4, r5, r6, r7, r8, r9, sl, fp, ip, lr}
    8aec:	e1b0f00e 	movs	pc, lr

00008af0 <prefetch_handler_full>:
    8af0:	e3a0d409 	mov	sp, #150994944	; 0x9000000
    8af4:	e24ee004 	sub	lr, lr, #4, 0
    8af8:	e8cd7fff 	stmia	sp, {r0, r1, r2, r3, r4, r5, r6, r7, r8, r9, sl, fp, ip, sp, lr}^
    8afc:	e58de03c 	str	lr, [sp, #60]	; 0x3c
    8b00:	e14fc000 	mrs	ip, SPSR
    8b04:	e58dc040 	str	ip, [sp, #64]	; 0x40
    8b08:	e1a0000d 	mov	r0, sp
    8b0c:	e14f1000 	mrs	r1, SPSR
    8b10:	e1a0200e 	mov	r2, lr
    8b14:	ebfffe23 	bl	83a8 <prefetch_abort_full_except>
    8b18:	e3a0d409 	mov	sp, #150994944	; 0x9000000
    8b1c:	e24f0004 	sub	r0, pc, #4, 0
    8b20:	e28f1000 	add	r1, pc, #0, 0
    8b24:	ea00091a 	b	af94 <asm_not_reached_helper>
    8b28:	6c6c7566 	.word	0x6c6c7566
    8b2c:	6378652d 	.word	0x6378652d
    8b30:	2d747065 	.word	0x2d747065
    8b34:	2e6d7361 	.word	0x2e6d7361
    8b38:	31313a53 	.word	0x31313a53
    8b3c:	4e3c3a34 	.word	0x4e3c3a34
    8b40:	5220544f 	.word	0x5220544f
    8b44:	48434145 	.word	0x48434145
    8b48:	003e4445 	.word	0x003e4445

00008b4c <data_abort_full>:
    8b4c:	e3a0d409 	mov	sp, #150994944	; 0x9000000
    8b50:	e24ee008 	sub	lr, lr, #8, 0
    8b54:	e8cd7fff 	stmia	sp, {r0, r1, r2, r3, r4, r5, r6, r7, r8, r9, sl, fp, ip, sp, lr}^
    8b58:	e58de03c 	str	lr, [sp, #60]	; 0x3c
    8b5c:	e14fc000 	mrs	ip, SPSR
    8b60:	e58dc040 	str	ip, [sp, #64]	; 0x40
    8b64:	e1a0000d 	mov	r0, sp
    8b68:	e14f1000 	mrs	r1, SPSR
    8b6c:	e1a0200e 	mov	r2, lr
    8b70:	ebfffe46 	bl	8490 <data_abort_full_except>
    8b74:	e3a0d409 	mov	sp, #150994944	; 0x9000000
    8b78:	e24f0004 	sub	r0, pc, #4, 0
    8b7c:	e28f1000 	add	r1, pc, #0, 0
    8b80:	ea000903 	b	af94 <asm_not_reached_helper>
    8b84:	6c6c7566 	.word	0x6c6c7566
    8b88:	6378652d 	.word	0x6378652d
    8b8c:	2d747065 	.word	0x2d747065
    8b90:	2e6d7361 	.word	0x2e6d7361
    8b94:	33313a53 	.word	0x33313a53
    8b98:	4e3c3a37 	.word	0x4e3c3a37
    8b9c:	5220544f 	.word	0x5220544f
    8ba0:	48434145 	.word	0x48434145
    8ba4:	003e4445 	.word	0x003e4445

00008ba8 <syscall_full>:
    8ba8:	e3a0d409 	mov	sp, #150994944	; 0x9000000
    8bac:	e8cd7fff 	stmia	sp, {r0, r1, r2, r3, r4, r5, r6, r7, r8, r9, sl, fp, ip, sp, lr}^
    8bb0:	e58de03c 	str	lr, [sp, #60]	; 0x3c
    8bb4:	e14fc000 	mrs	ip, SPSR
    8bb8:	e58dc040 	str	ip, [sp, #64]	; 0x40
    8bbc:	e1a0000d 	mov	r0, sp
    8bc0:	e14f1000 	mrs	r1, SPSR
    8bc4:	e1a0200e 	mov	r2, lr
    8bc8:	ebfffe6a 	bl	8578 <syscall_full_except>
    8bcc:	e3a0d409 	mov	sp, #150994944	; 0x9000000
    8bd0:	e24f0004 	sub	r0, pc, #4, 0
    8bd4:	e28f1000 	add	r1, pc, #0, 0
    8bd8:	ea0008ed 	b	af94 <asm_not_reached_helper>
    8bdc:	6c6c7566 	.word	0x6c6c7566
    8be0:	6378652d 	.word	0x6378652d
    8be4:	2d747065 	.word	0x2d747065
    8be8:	2e6d7361 	.word	0x2e6d7361
    8bec:	35313a53 	.word	0x35313a53
    8bf0:	4e3c3a39 	.word	0x4e3c3a39
    8bf4:	5220544f 	.word	0x5220544f
    8bf8:	48434145 	.word	0x48434145
    8bfc:	003e4445 	.word	0x003e4445

00008c00 <interrupt_full>:
    8c00:	e3a0d409 	mov	sp, #150994944	; 0x9000000
    8c04:	e8cd7fff 	stmia	sp, {r0, r1, r2, r3, r4, r5, r6, r7, r8, r9, sl, fp, ip, sp, lr}^
    8c08:	e58de03c 	str	lr, [sp, #60]	; 0x3c
    8c0c:	e14fc000 	mrs	ip, SPSR
    8c10:	e58dc040 	str	ip, [sp, #64]	; 0x40
    8c14:	e1a0000d 	mov	r0, sp
    8c18:	ebfffea1 	bl	86a4 <interrupt_except>
    8c1c:	e320f000 	nop	{0}

00008c20 <full_except_ints>:
    8c20:	eaffff96 	b	8a80 <reset>
    8c24:	eaffff9c 	b	8a9c <undef>
    8c28:	eaffffde 	b	8ba8 <syscall_full>
    8c2c:	eaffffaf 	b	8af0 <prefetch_handler_full>
    8c30:	eaffffc5 	b	8b4c <data_abort_full>
    8c34:	eaffffa6 	b	8ad4 <interrupt>
    8c38:	eafffff0 	b	8c00 <interrupt_full>

00008c3c <syscall_trampoline>:
    8c3c:	e52de004 	push	{lr}		; (str lr, [sp, #-4]!)
    8c40:	ef000001 	svc	0x00000001
    8c44:	e49de004 	pop	{lr}		; (ldr lr, [sp], #4)
    8c48:	e12fff1e 	bx	lr

00008c4c <switchto>:
    8c4c:	e52de004 	push	{lr}		; (str lr, [sp, #-4]!)
    8c50:	e24dd00c 	sub	sp, sp, #12, 0
    8c54:	e5903040 	ldr	r3, [r0, #64]	; 0x40
    8c58:	e203301f 	and	r3, r3, #31, 0
    8c5c:	e3530012 	cmp	r3, #18, 0
    8c60:	13530010 	cmpne	r3, #16, 0
    8c64:	0a000005 	beq	8c80 <switchto+0x34>
    8c68:	e3530017 	cmp	r3, #23, 0
    8c6c:	13530013 	cmpne	r3, #19, 0
    8c70:	0a000002 	beq	8c80 <switchto+0x34>
    8c74:	e353001f 	cmp	r3, #31, 0
    8c78:	1353001b 	cmpne	r3, #27, 0
    8c7c:	1a000002 	bne	8c8c <switchto+0x40>
    8c80:	e3530010 	cmp	r3, #16, 0
    8c84:	0a000008 	beq	8cac <switchto+0x60>
    8c88:	ebffff32 	bl	8958 <switchto_priv_asm>
    8c8c:	e58d3004 	str	r3, [sp, #4]
    8c90:	e58d3000 	str	r3, [sp]
    8c94:	e3a03013 	mov	r3, #19, 0
    8c98:	e59f2010 	ldr	r2, [pc, #16]	; 8cb0 <switchto+0x64>
    8c9c:	e59f1010 	ldr	r1, [pc, #16]	; 8cb4 <switchto+0x68>
    8ca0:	e59f0010 	ldr	r0, [pc, #16]	; 8cb8 <switchto+0x6c>
    8ca4:	eb0007b1 	bl	ab70 <printk>
    8ca8:	eb0008e0 	bl	b030 <clean_reboot>
    8cac:	ebffff18 	bl	8914 <switchto_user_asm>
    8cb0:	0000c24c 	.word	0x0000c24c
    8cb4:	0000bce0 	.word	0x0000bce0
    8cb8:	0000bd24 	.word	0x0000bd24

00008cbc <pre_syscall_handler>:
    8cbc:	e92d4030 	push	{r4, r5, lr}
    8cc0:	e24dd014 	sub	sp, sp, #20, 0
    8cc4:	e1a04000 	mov	r4, r0
    8cc8:	eb000a6a 	bl	b678 <uart_flush_tx>
    8ccc:	e5942000 	ldr	r2, [r4]
    8cd0:	e3520000 	cmp	r2, #0, 0
    8cd4:	0a000006 	beq	8cf4 <pre_syscall_handler+0x38>
    8cd8:	e3520001 	cmp	r2, #1, 0
    8cdc:	1a000053 	bne	8e30 <pre_syscall_handler+0x174>
    8ce0:	e5d40004 	ldrb	r0, [r4, #4]
    8ce4:	eb000a48 	bl	b60c <uart_put8>
    8ce8:	e3a00000 	mov	r0, #0, 0
    8cec:	e28dd014 	add	sp, sp, #20, 0
    8cf0:	e8bd8030 	pop	{r4, r5, pc}
    8cf4:	e59f1150 	ldr	r1, [pc, #336]	; 8e4c <pre_syscall_handler+0x190>
    8cf8:	e5910000 	ldr	r0, [r1]
    8cfc:	e5913000 	ldr	r3, [r1]
    8d00:	e5933064 	ldr	r3, [r3, #100]	; 0x64
    8d04:	e5911000 	ldr	r1, [r1]
    8d08:	e3500000 	cmp	r0, #0, 0
    8d0c:	0a000015 	beq	8d68 <pre_syscall_handler+0xac>
    8d10:	e3a0c011 	mov	ip, #17, 0
    8d14:	ea00000b 	b	8d48 <pre_syscall_handler+0x8c>
    8d18:	e5d0e001 	ldrb	lr, [r0, #1]
    8d1c:	e5d02000 	ldrb	r2, [r0]
    8d20:	e182240e 	orr	r2, r2, lr, lsl #8
    8d24:	e0822003 	add	r2, r2, r3
    8d28:	e5d0e003 	ldrb	lr, [r0, #3]
    8d2c:	e5d03002 	ldrb	r3, [r0, #2]
    8d30:	e183340e 	orr	r3, r3, lr, lsl #8
    8d34:	e0223583 	eor	r3, r2, r3, lsl #11
    8d38:	e0233802 	eor	r3, r3, r2, lsl #16
    8d3c:	e2800004 	add	r0, r0, #4, 0
    8d40:	e08335a3 	add	r3, r3, r3, lsr #11
    8d44:	e24cc001 	sub	ip, ip, #1, 0
    8d48:	e35c0000 	cmp	ip, #0, 0
    8d4c:	1afffff1 	bne	8d18 <pre_syscall_handler+0x5c>
    8d50:	e0233183 	eor	r3, r3, r3, lsl #3
    8d54:	e08332a3 	add	r3, r3, r3, lsr #5
    8d58:	e0233203 	eor	r3, r3, r3, lsl #4
    8d5c:	e08338a3 	add	r3, r3, r3, lsr #17
    8d60:	e0233c83 	eor	r3, r3, r3, lsl #25
    8d64:	e0832323 	add	r2, r3, r3, lsr #6
    8d68:	e5812064 	str	r2, [r1, #100]	; 0x64
    8d6c:	e59f30d8 	ldr	r3, [pc, #216]	; 8e4c <pre_syscall_handler+0x190>
    8d70:	e5933000 	ldr	r3, [r3]
    8d74:	e5933060 	ldr	r3, [r3, #96]	; 0x60
    8d78:	e3530000 	cmp	r3, #0, 0
    8d7c:	0a000017 	beq	8de0 <pre_syscall_handler+0x124>
    8d80:	e59f30c4 	ldr	r3, [pc, #196]	; 8e4c <pre_syscall_handler+0x190>
    8d84:	e5933000 	ldr	r3, [r3]
    8d88:	e5933060 	ldr	r3, [r3, #96]	; 0x60
    8d8c:	e3530000 	cmp	r3, #0, 0
    8d90:	0a000022 	beq	8e20 <pre_syscall_handler+0x164>
    8d94:	e59f30b0 	ldr	r3, [pc, #176]	; 8e4c <pre_syscall_handler+0x190>
    8d98:	e5932000 	ldr	r2, [r3]
    8d9c:	e5924060 	ldr	r4, [r2, #96]	; 0x60
    8da0:	e5933000 	ldr	r3, [r3]
    8da4:	e5935064 	ldr	r5, [r3, #100]	; 0x64
    8da8:	e1540005 	cmp	r4, r5
    8dac:	0a000011 	beq	8df8 <pre_syscall_handler+0x13c>
    8db0:	e59f3094 	ldr	r3, [pc, #148]	; 8e4c <pre_syscall_handler+0x190>
    8db4:	e5933000 	ldr	r3, [r3]
    8db8:	e58d5008 	str	r5, [sp, #8]
    8dbc:	e58d4004 	str	r4, [sp, #4]
    8dc0:	e5933048 	ldr	r3, [r3, #72]	; 0x48
    8dc4:	e58d3000 	str	r3, [sp]
    8dc8:	e3a030d1 	mov	r3, #209, 0	; 0xd1
    8dcc:	e59f207c 	ldr	r2, [pc, #124]	; 8e50 <pre_syscall_handler+0x194>
    8dd0:	e59f107c 	ldr	r1, [pc, #124]	; 8e54 <pre_syscall_handler+0x198>
    8dd4:	e59f007c 	ldr	r0, [pc, #124]	; 8e58 <pre_syscall_handler+0x19c>
    8dd8:	eb000764 	bl	ab70 <printk>
    8ddc:	eb000893 	bl	b030 <clean_reboot>
    8de0:	e59f3064 	ldr	r3, [pc, #100]	; 8e4c <pre_syscall_handler+0x190>
    8de4:	e5932000 	ldr	r2, [r3]
    8de8:	e5933000 	ldr	r3, [r3]
    8dec:	e5922064 	ldr	r2, [r2, #100]	; 0x64
    8df0:	e5832060 	str	r2, [r3, #96]	; 0x60
    8df4:	ea000009 	b	8e20 <pre_syscall_handler+0x164>
    8df8:	e59f1050 	ldr	r1, [pc, #80]	; 8e50 <pre_syscall_handler+0x194>
    8dfc:	e59f0058 	ldr	r0, [pc, #88]	; 8e5c <pre_syscall_handler+0x1a0>
    8e00:	eb00075a 	bl	ab70 <printk>
    8e04:	e59f3040 	ldr	r3, [pc, #64]	; 8e4c <pre_syscall_handler+0x190>
    8e08:	e5931000 	ldr	r1, [r3]
    8e0c:	e1a03005 	mov	r3, r5
    8e10:	e1a02004 	mov	r2, r4
    8e14:	e5911048 	ldr	r1, [r1, #72]	; 0x48
    8e18:	e59f0040 	ldr	r0, [pc, #64]	; 8e60 <pre_syscall_handler+0x1a4>
    8e1c:	eb000753 	bl	ab70 <printk>
    8e20:	e59f3024 	ldr	r3, [pc, #36]	; 8e4c <pre_syscall_handler+0x190>
    8e24:	e5930004 	ldr	r0, [r3, #4]
    8e28:	e5830000 	str	r0, [r3]
    8e2c:	ebffff86 	bl	8c4c <switchto>
    8e30:	e58d2000 	str	r2, [sp]
    8e34:	e3a030dd 	mov	r3, #221, 0	; 0xdd
    8e38:	e59f2010 	ldr	r2, [pc, #16]	; 8e50 <pre_syscall_handler+0x194>
    8e3c:	e59f1010 	ldr	r1, [pc, #16]	; 8e54 <pre_syscall_handler+0x198>
    8e40:	e59f001c 	ldr	r0, [pc, #28]	; 8e64 <pre_syscall_handler+0x1a8>
    8e44:	eb000749 	bl	ab70 <printk>
    8e48:	eb000878 	bl	b030 <clean_reboot>
    8e4c:	0000ce8c 	.word	0x0000ce8c
    8e50:	0000c258 	.word	0x0000c258
    8e54:	0000c0ac 	.word	0x0000c0ac
    8e58:	0000c0c0 	.word	0x0000c0c0
    8e5c:	0000bc18 	.word	0x0000bc18
    8e60:	0000c088 	.word	0x0000c088
    8e64:	0000c104 	.word	0x0000c104

00008e68 <eq_insert_with_priority>:
    8e68:	e52de004 	push	{lr}		; (str lr, [sp, #-4]!)
    8e6c:	e24dd00c 	sub	sp, sp, #12, 0
    8e70:	e5903000 	ldr	r3, [r0]
    8e74:	e3530000 	cmp	r3, #0, 0
    8e78:	0a00000b 	beq	8eac <eq_insert_with_priority+0x44>
    8e7c:	e3a03000 	mov	r3, #0, 0
    8e80:	e3530000 	cmp	r3, #0, 0
    8e84:	0a000017 	beq	8ee8 <eq_insert_with_priority+0x80>
    8e88:	e3a03000 	mov	r3, #0, 0
    8e8c:	e5813044 	str	r3, [r1, #68]	; 0x44
    8e90:	e5903004 	ldr	r3, [r0, #4]
    8e94:	e3530000 	cmp	r3, #0, 0
    8e98:	0a00000f 	beq	8edc <eq_insert_with_priority+0x74>
    8e9c:	e5831044 	str	r1, [r3, #68]	; 0x44
    8ea0:	e5801004 	str	r1, [r0, #4]
    8ea4:	e28dd00c 	add	sp, sp, #12, 0
    8ea8:	e49df004 	pop	{pc}		; (ldr pc, [sp], #4)
    8eac:	e5903004 	ldr	r3, [r0, #4]
    8eb0:	e3530000 	cmp	r3, #0, 0
    8eb4:	03a03001 	moveq	r3, #1, 0
    8eb8:	0afffff0 	beq	8e80 <eq_insert_with_priority+0x18>
    8ebc:	e59f308c 	ldr	r3, [pc, #140]	; 8f50 <eq_insert_with_priority+0xe8>
    8ec0:	e58d3000 	str	r3, [sp]
    8ec4:	e3a03020 	mov	r3, #32, 0
    8ec8:	e59f2084 	ldr	r2, [pc, #132]	; 8f54 <eq_insert_with_priority+0xec>
    8ecc:	e59f1084 	ldr	r1, [pc, #132]	; 8f58 <eq_insert_with_priority+0xf0>
    8ed0:	e59f0084 	ldr	r0, [pc, #132]	; 8f5c <eq_insert_with_priority+0xf4>
    8ed4:	eb000725 	bl	ab70 <printk>
    8ed8:	eb000854 	bl	b030 <clean_reboot>
    8edc:	e5801004 	str	r1, [r0, #4]
    8ee0:	e5801000 	str	r1, [r0]
    8ee4:	eaffffee 	b	8ea4 <eq_insert_with_priority+0x3c>
    8ee8:	e5903000 	ldr	r3, [r0]
    8eec:	e3a0e000 	mov	lr, #0, 0
    8ef0:	e3530000 	cmp	r3, #0, 0
    8ef4:	0a00000c 	beq	8f2c <eq_insert_with_priority+0xc4>
    8ef8:	e591c05c 	ldr	ip, [r1, #92]	; 0x5c
    8efc:	e593205c 	ldr	r2, [r3, #92]	; 0x5c
    8f00:	e15c0002 	cmp	ip, r2
    8f04:	91a0e003 	movls	lr, r3
    8f08:	95933044 	ldrls	r3, [r3, #68]	; 0x44
    8f0c:	9afffff7 	bls	8ef0 <eq_insert_with_priority+0x88>
    8f10:	e35e0000 	cmp	lr, #0, 0
    8f14:	0a000002 	beq	8f24 <eq_insert_with_priority+0xbc>
    8f18:	e58e1044 	str	r1, [lr, #68]	; 0x44
    8f1c:	e5813044 	str	r3, [r1, #68]	; 0x44
    8f20:	eaffffdf 	b	8ea4 <eq_insert_with_priority+0x3c>
    8f24:	e5801000 	str	r1, [r0]
    8f28:	eafffffb 	b	8f1c <eq_insert_with_priority+0xb4>
    8f2c:	e5813044 	str	r3, [r1, #68]	; 0x44
    8f30:	e5903004 	ldr	r3, [r0, #4]
    8f34:	e3530000 	cmp	r3, #0, 0
    8f38:	15831044 	strne	r1, [r3, #68]	; 0x44
    8f3c:	15801004 	strne	r1, [r0, #4]
    8f40:	1affffd7 	bne	8ea4 <eq_insert_with_priority+0x3c>
    8f44:	e5801004 	str	r1, [r0, #4]
    8f48:	e5801000 	str	r1, [r0]
    8f4c:	eaffffd4 	b	8ea4 <eq_insert_with_priority+0x3c>
    8f50:	0000c174 	.word	0x0000c174
    8f54:	0000c26c 	.word	0x0000c26c
    8f58:	0000c12c 	.word	0x0000c12c
    8f5c:	0000c140 	.word	0x0000c140

00008f60 <interrupt_handler>:
    8f60:	e92d4070 	push	{r4, r5, r6, lr}
    8f64:	e1a04000 	mov	r4, r0
    8f68:	eb0008eb 	bl	b31c <dev_barrier>
    8f6c:	e59f0054 	ldr	r0, [pc, #84]	; 8fc8 <interrupt_handler+0x68>
    8f70:	ebfffc2d 	bl	802c <GET32>
    8f74:	e3100001 	tst	r0, #1, 0
    8f78:	08bd8070 	popeq	{r4, r5, r6, pc}
    8f7c:	e3a01001 	mov	r1, #1, 0
    8f80:	e59f0044 	ldr	r0, [pc, #68]	; 8fcc <interrupt_handler+0x6c>
    8f84:	ebfffc26 	bl	8024 <PUT32>
    8f88:	eb0008e3 	bl	b31c <dev_barrier>
    8f8c:	e14f3000 	mrs	r3, SPSR
    8f90:	e594303c 	ldr	r3, [r4, #60]	; 0x3c
    8f94:	e2433004 	sub	r3, r3, #4, 0
    8f98:	e584303c 	str	r3, [r4, #60]	; 0x3c
    8f9c:	e59f502c 	ldr	r5, [pc, #44]	; 8fd0 <interrupt_handler+0x70>
    8fa0:	e5950000 	ldr	r0, [r5]
    8fa4:	e3a02044 	mov	r2, #68, 0	; 0x44
    8fa8:	e1a01004 	mov	r1, r4
    8fac:	eb00069c 	bl	aa24 <memcpy>
    8fb0:	e1a00005 	mov	r0, r5
    8fb4:	e4901008 	ldr	r1, [r0], #8
    8fb8:	ebffffaa 	bl	8e68 <eq_insert_with_priority>
    8fbc:	e5950004 	ldr	r0, [r5, #4]
    8fc0:	e5850000 	str	r0, [r5]
    8fc4:	ebffff20 	bl	8c4c <switchto>
    8fc8:	2000b200 	.word	0x2000b200
    8fcc:	2000b40c 	.word	0x2000b40c
    8fd0:	0000ce8c 	.word	0x0000ce8c

00008fd4 <pre_th_alloc>:
    8fd4:	e52de004 	push	{lr}		; (str lr, [sp, #-4]!)
    8fd8:	e24dd00c 	sub	sp, sp, #12, 0
    8fdc:	e59f30d4 	ldr	r3, [pc, #212]	; 90b8 <pre_th_alloc+0xe4>
    8fe0:	e5930010 	ldr	r0, [r3, #16]
    8fe4:	e3500000 	cmp	r0, #0, 0
    8fe8:	0a00000d 	beq	9024 <pre_th_alloc+0x50>
    8fec:	e5903044 	ldr	r3, [r0, #68]	; 0x44
    8ff0:	e59f20c0 	ldr	r2, [pc, #192]	; 90b8 <pre_th_alloc+0xe4>
    8ff4:	e5823010 	str	r3, [r2, #16]
    8ff8:	e3530000 	cmp	r3, #0, 0
    8ffc:	0a000021 	beq	9088 <pre_th_alloc+0xb4>
    9000:	e3500000 	cmp	r0, #0, 0
    9004:	0a000023 	beq	9098 <pre_th_alloc+0xc4>
    9008:	e59f20ac 	ldr	r2, [pc, #172]	; 90bc <pre_th_alloc+0xe8>
    900c:	e5923000 	ldr	r3, [r2]
    9010:	e2831001 	add	r1, r3, #1, 0
    9014:	e5821000 	str	r1, [r2]
    9018:	e5803048 	str	r3, [r0, #72]	; 0x48
    901c:	e28dd00c 	add	sp, sp, #12, 0
    9020:	e49df004 	pop	{pc}		; (ldr pc, [sp], #4)
    9024:	0a00000a 	beq	9054 <pre_th_alloc+0x80>
    9028:	e3a03000 	mov	r3, #0, 0
    902c:	e3530000 	cmp	r3, #0, 0
    9030:	1afffff2 	bne	9000 <pre_th_alloc+0x2c>
    9034:	e59f3084 	ldr	r3, [pc, #132]	; 90c0 <pre_th_alloc+0xec>
    9038:	e58d3000 	str	r3, [sp]
    903c:	e3a03020 	mov	r3, #32, 0
    9040:	e59f207c 	ldr	r2, [pc, #124]	; 90c4 <pre_th_alloc+0xf0>
    9044:	e59f107c 	ldr	r1, [pc, #124]	; 90c8 <pre_th_alloc+0xf4>
    9048:	e59f007c 	ldr	r0, [pc, #124]	; 90cc <pre_th_alloc+0xf8>
    904c:	eb0006c7 	bl	ab70 <printk>
    9050:	eb0007f6 	bl	b030 <clean_reboot>
    9054:	e59f305c 	ldr	r3, [pc, #92]	; 90b8 <pre_th_alloc+0xe4>
    9058:	e5933014 	ldr	r3, [r3, #20]
    905c:	e3530000 	cmp	r3, #0, 0
    9060:	03a03001 	moveq	r3, #1, 0
    9064:	0afffff0 	beq	902c <pre_th_alloc+0x58>
    9068:	e59f3060 	ldr	r3, [pc, #96]	; 90d0 <pre_th_alloc+0xfc>
    906c:	e58d3000 	str	r3, [sp]
    9070:	e3a03020 	mov	r3, #32, 0
    9074:	e59f2058 	ldr	r2, [pc, #88]	; 90d4 <pre_th_alloc+0x100>
    9078:	e59f1048 	ldr	r1, [pc, #72]	; 90c8 <pre_th_alloc+0xf4>
    907c:	e59f0054 	ldr	r0, [pc, #84]	; 90d8 <pre_th_alloc+0x104>
    9080:	eb0006ba 	bl	ab70 <printk>
    9084:	eb0007e9 	bl	b030 <clean_reboot>
    9088:	e1a03002 	mov	r3, r2
    908c:	e3a02000 	mov	r2, #0, 0
    9090:	e5832014 	str	r2, [r3, #20]
    9094:	eaffffd9 	b	9000 <pre_th_alloc+0x2c>
    9098:	e3a01008 	mov	r1, #8, 0
    909c:	e3a0006c 	mov	r0, #108, 0	; 0x6c
    90a0:	eb000a12 	bl	b8f0 <kmalloc_aligned>
    90a4:	e59f200c 	ldr	r2, [pc, #12]	; 90b8 <pre_th_alloc+0xe4>
    90a8:	e5923018 	ldr	r3, [r2, #24]
    90ac:	e2833001 	add	r3, r3, #1, 0
    90b0:	e5823018 	str	r3, [r2, #24]
    90b4:	eaffffd3 	b	9008 <pre_th_alloc+0x34>
    90b8:	0000ce8c 	.word	0x0000ce8c
    90bc:	0000ce68 	.word	0x0000ce68
    90c0:	0000c180 	.word	0x0000c180
    90c4:	0000c278 	.word	0x0000c278
    90c8:	0000c12c 	.word	0x0000c12c
    90cc:	0000bd64 	.word	0x0000bd64
    90d0:	0000c174 	.word	0x0000c174
    90d4:	0000c26c 	.word	0x0000c26c
    90d8:	0000c140 	.word	0x0000c140

000090dc <pre_fork>:
    90dc:	e92d41f0 	push	{r4, r5, r6, r7, r8, lr}
    90e0:	e24dd090 	sub	sp, sp, #144, 0	; 0x90
    90e4:	e1a07000 	mov	r7, r0
    90e8:	e1a05001 	mov	r5, r1
    90ec:	e1a06002 	mov	r6, r2
    90f0:	e1a08003 	mov	r8, r3
    90f4:	ebffffb6 	bl	8fd4 <pre_th_alloc>
    90f8:	e1a04000 	mov	r4, r0
    90fc:	e5808060 	str	r8, [r0, #96]	; 0x60
    9100:	e580704c 	str	r7, [r0, #76]	; 0x4c
    9104:	e5805050 	str	r5, [r0, #80]	; 0x50
    9108:	e5800054 	str	r0, [r0, #84]	; 0x54
    910c:	e2803801 	add	r3, r0, #65536	; 0x10000
    9110:	e5803058 	str	r3, [r0, #88]	; 0x58
    9114:	e10f3000 	mrs	r3, CPSR
    9118:	e3c3320f 	bic	r3, r3, #-268435456	; 0xf0000000
    911c:	e3c3301f 	bic	r3, r3, #31, 0
    9120:	e3835010 	orr	r5, r3, #16, 0
    9124:	e3a02030 	mov	r2, #48, 0	; 0x30
    9128:	e3a01000 	mov	r1, #0, 0
    912c:	e28d000c 	add	r0, sp, #12, 0
    9130:	eb000666 	bl	aad0 <memset>
    9134:	e5943050 	ldr	r3, [r4, #80]	; 0x50
    9138:	e58d3008 	str	r3, [sp, #8]
    913c:	e5943058 	ldr	r3, [r4, #88]	; 0x58
    9140:	e58d303c 	str	r3, [sp, #60]	; 0x3c
    9144:	e59f3144 	ldr	r3, [pc, #324]	; 9290 <pre_fork+0x1b4>
    9148:	e58d3040 	str	r3, [sp, #64]	; 0x40
    914c:	e594304c 	ldr	r3, [r4, #76]	; 0x4c
    9150:	e58d3044 	str	r3, [sp, #68]	; 0x44
    9154:	e3c53080 	bic	r3, r5, #128, 0	; 0x80
    9158:	e58d3048 	str	r3, [sp, #72]	; 0x48
    915c:	e3a05044 	mov	r5, #68, 0	; 0x44
    9160:	e1a02005 	mov	r2, r5
    9164:	e28d1008 	add	r1, sp, #8, 0
    9168:	e28d004c 	add	r0, sp, #76, 0	; 0x4c
    916c:	eb00062c 	bl	aa24 <memcpy>
    9170:	e1a02005 	mov	r2, r5
    9174:	e28d104c 	add	r1, sp, #76, 0	; 0x4c
    9178:	e1a00004 	mov	r0, r4
    917c:	eb000628 	bl	aa24 <memcpy>
    9180:	e584605c 	str	r6, [r4, #92]	; 0x5c
    9184:	e59f3108 	ldr	r3, [pc, #264]	; 9294 <pre_fork+0x1b8>
    9188:	e5933008 	ldr	r3, [r3, #8]
    918c:	e3530000 	cmp	r3, #0, 0
    9190:	0a00000e 	beq	91d0 <pre_fork+0xf4>
    9194:	e3a03000 	mov	r3, #0, 0
    9198:	e3530000 	cmp	r3, #0, 0
    919c:	0a00001c 	beq	9214 <pre_fork+0x138>
    91a0:	e3a03000 	mov	r3, #0, 0
    91a4:	e5843044 	str	r3, [r4, #68]	; 0x44
    91a8:	e59f30e4 	ldr	r3, [pc, #228]	; 9294 <pre_fork+0x1b8>
    91ac:	e593300c 	ldr	r3, [r3, #12]
    91b0:	e3530000 	cmp	r3, #0, 0
    91b4:	0a000012 	beq	9204 <pre_fork+0x128>
    91b8:	e5834044 	str	r4, [r3, #68]	; 0x44
    91bc:	e59f30d0 	ldr	r3, [pc, #208]	; 9294 <pre_fork+0x1b8>
    91c0:	e583400c 	str	r4, [r3, #12]
    91c4:	e1a00004 	mov	r0, r4
    91c8:	e28dd090 	add	sp, sp, #144, 0	; 0x90
    91cc:	e8bd81f0 	pop	{r4, r5, r6, r7, r8, pc}
    91d0:	e59f30bc 	ldr	r3, [pc, #188]	; 9294 <pre_fork+0x1b8>
    91d4:	e593300c 	ldr	r3, [r3, #12]
    91d8:	e3530000 	cmp	r3, #0, 0
    91dc:	03a03001 	moveq	r3, #1, 0
    91e0:	0affffec 	beq	9198 <pre_fork+0xbc>
    91e4:	e59f30ac 	ldr	r3, [pc, #172]	; 9298 <pre_fork+0x1bc>
    91e8:	e58d3000 	str	r3, [sp]
    91ec:	e3a03020 	mov	r3, #32, 0
    91f0:	e59f20a4 	ldr	r2, [pc, #164]	; 929c <pre_fork+0x1c0>
    91f4:	e59f10a4 	ldr	r1, [pc, #164]	; 92a0 <pre_fork+0x1c4>
    91f8:	e59f00a4 	ldr	r0, [pc, #164]	; 92a4 <pre_fork+0x1c8>
    91fc:	eb00065b 	bl	ab70 <printk>
    9200:	eb00078a 	bl	b030 <clean_reboot>
    9204:	e59f3088 	ldr	r3, [pc, #136]	; 9294 <pre_fork+0x1b8>
    9208:	e583400c 	str	r4, [r3, #12]
    920c:	e5834008 	str	r4, [r3, #8]
    9210:	eaffffeb 	b	91c4 <pre_fork+0xe8>
    9214:	e59f3078 	ldr	r3, [pc, #120]	; 9294 <pre_fork+0x1b8>
    9218:	e5933008 	ldr	r3, [r3, #8]
    921c:	e3a00000 	mov	r0, #0, 0
    9220:	e3530000 	cmp	r3, #0, 0
    9224:	0a00000d 	beq	9260 <pre_fork+0x184>
    9228:	e594105c 	ldr	r1, [r4, #92]	; 0x5c
    922c:	e593205c 	ldr	r2, [r3, #92]	; 0x5c
    9230:	e1510002 	cmp	r1, r2
    9234:	91a00003 	movls	r0, r3
    9238:	95933044 	ldrls	r3, [r3, #68]	; 0x44
    923c:	9afffff7 	bls	9220 <pre_fork+0x144>
    9240:	e3500000 	cmp	r0, #0, 0
    9244:	0a000002 	beq	9254 <pre_fork+0x178>
    9248:	e5804044 	str	r4, [r0, #68]	; 0x44
    924c:	e5843044 	str	r3, [r4, #68]	; 0x44
    9250:	eaffffdb 	b	91c4 <pre_fork+0xe8>
    9254:	e59f2038 	ldr	r2, [pc, #56]	; 9294 <pre_fork+0x1b8>
    9258:	e5824008 	str	r4, [r2, #8]
    925c:	eafffffa 	b	924c <pre_fork+0x170>
    9260:	e5843044 	str	r3, [r4, #68]	; 0x44
    9264:	e59f3028 	ldr	r3, [pc, #40]	; 9294 <pre_fork+0x1b8>
    9268:	e593300c 	ldr	r3, [r3, #12]
    926c:	e3530000 	cmp	r3, #0, 0
    9270:	15834044 	strne	r4, [r3, #68]	; 0x44
    9274:	159f3018 	ldrne	r3, [pc, #24]	; 9294 <pre_fork+0x1b8>
    9278:	1583400c 	strne	r4, [r3, #12]
    927c:	1affffd0 	bne	91c4 <pre_fork+0xe8>
    9280:	e59f300c 	ldr	r3, [pc, #12]	; 9294 <pre_fork+0x1b8>
    9284:	e583400c 	str	r4, [r3, #12]
    9288:	e5834008 	str	r4, [r3, #8]
    928c:	eaffffcc 	b	91c4 <pre_fork+0xe8>
    9290:	00008120 	.word	0x00008120
    9294:	0000ce8c 	.word	0x0000ce8c
    9298:	0000c174 	.word	0x0000c174
    929c:	0000c26c 	.word	0x0000c26c
    92a0:	0000c12c 	.word	0x0000c12c
    92a4:	0000c140 	.word	0x0000c140

000092a8 <scheduler>:
    92a8:	e52de004 	push	{lr}		; (str lr, [sp, #-4]!)
    92ac:	e24dd00c 	sub	sp, sp, #12, 0
    92b0:	ea00003b 	b	93a4 <scheduler+0xfc>
    92b4:	e59f31ec 	ldr	r3, [pc, #492]	; 94a8 <scheduler+0x200>
    92b8:	e593300c 	ldr	r3, [r3, #12]
    92bc:	e3530000 	cmp	r3, #0, 0
    92c0:	03a02001 	moveq	r2, #1, 0
    92c4:	0a00003b 	beq	93b8 <scheduler+0x110>
    92c8:	e59f31dc 	ldr	r3, [pc, #476]	; 94ac <scheduler+0x204>
    92cc:	e58d3000 	str	r3, [sp]
    92d0:	e3a03020 	mov	r3, #32, 0
    92d4:	e59f21d4 	ldr	r2, [pc, #468]	; 94b0 <scheduler+0x208>
    92d8:	e59f11d4 	ldr	r1, [pc, #468]	; 94b4 <scheduler+0x20c>
    92dc:	e59f01d4 	ldr	r0, [pc, #468]	; 94b8 <scheduler+0x210>
    92e0:	eb000622 	bl	ab70 <printk>
    92e4:	eb000751 	bl	b030 <clean_reboot>
    92e8:	0a000009 	beq	9314 <scheduler+0x6c>
    92ec:	e3520000 	cmp	r2, #0, 0
    92f0:	1a00003b 	bne	93e4 <scheduler+0x13c>
    92f4:	e59f31c0 	ldr	r3, [pc, #448]	; 94bc <scheduler+0x214>
    92f8:	e58d3000 	str	r3, [sp]
    92fc:	e3a03020 	mov	r3, #32, 0
    9300:	e59f21b8 	ldr	r2, [pc, #440]	; 94c0 <scheduler+0x218>
    9304:	e59f11a8 	ldr	r1, [pc, #424]	; 94b4 <scheduler+0x20c>
    9308:	e59f01b4 	ldr	r0, [pc, #436]	; 94c4 <scheduler+0x21c>
    930c:	eb000617 	bl	ab70 <printk>
    9310:	eb000746 	bl	b030 <clean_reboot>
    9314:	e59f218c 	ldr	r2, [pc, #396]	; 94a8 <scheduler+0x200>
    9318:	e592200c 	ldr	r2, [r2, #12]
    931c:	e3520000 	cmp	r2, #0, 0
    9320:	03a02001 	moveq	r2, #1, 0
    9324:	0afffff0 	beq	92ec <scheduler+0x44>
    9328:	e59f317c 	ldr	r3, [pc, #380]	; 94ac <scheduler+0x204>
    932c:	e58d3000 	str	r3, [sp]
    9330:	e3a03020 	mov	r3, #32, 0
    9334:	e59f2174 	ldr	r2, [pc, #372]	; 94b0 <scheduler+0x208>
    9338:	e59f1174 	ldr	r1, [pc, #372]	; 94b4 <scheduler+0x20c>
    933c:	e59f0174 	ldr	r0, [pc, #372]	; 94b8 <scheduler+0x210>
    9340:	eb00060a 	bl	ab70 <printk>
    9344:	eb000739 	bl	b030 <clean_reboot>
    9348:	e1a02001 	mov	r2, r1
    934c:	e3a01000 	mov	r1, #0, 0
    9350:	e582100c 	str	r1, [r2, #12]
    9354:	ea000022 	b	93e4 <scheduler+0x13c>
    9358:	e58d3004 	str	r3, [sp, #4]
    935c:	e58d3000 	str	r3, [sp]
    9360:	e3a03013 	mov	r3, #19, 0
    9364:	e59f215c 	ldr	r2, [pc, #348]	; 94c8 <scheduler+0x220>
    9368:	e59f115c 	ldr	r1, [pc, #348]	; 94cc <scheduler+0x224>
    936c:	e59f015c 	ldr	r0, [pc, #348]	; 94d0 <scheduler+0x228>
    9370:	eb0005fe 	bl	ab70 <printk>
    9374:	eb00072d 	bl	b030 <clean_reboot>
    9378:	e59f3154 	ldr	r3, [pc, #340]	; 94d4 <scheduler+0x22c>
    937c:	e58d3000 	str	r3, [sp]
    9380:	e3a03060 	mov	r3, #96, 0	; 0x60
    9384:	e59f214c 	ldr	r2, [pc, #332]	; 94d8 <scheduler+0x230>
    9388:	e59f114c 	ldr	r1, [pc, #332]	; 94dc <scheduler+0x234>
    938c:	e59f0130 	ldr	r0, [pc, #304]	; 94c4 <scheduler+0x21c>
    9390:	eb0005f6 	bl	ab70 <printk>
    9394:	eb000725 	bl	b030 <clean_reboot>
    9398:	e3530010 	cmp	r3, #16, 0
    939c:	1a000039 	bne	9488 <scheduler+0x1e0>
    93a0:	ebfffd96 	bl	8a00 <cswitchto_user_asm>
    93a4:	e59f30fc 	ldr	r3, [pc, #252]	; 94a8 <scheduler+0x200>
    93a8:	e5933008 	ldr	r3, [r3, #8]
    93ac:	e3530000 	cmp	r3, #0, 0
    93b0:	0affffbf 	beq	92b4 <scheduler+0xc>
    93b4:	e3a02000 	mov	r2, #0, 0
    93b8:	e3520000 	cmp	r2, #0, 0
    93bc:	1a000037 	bne	94a0 <scheduler+0x1f8>
    93c0:	e59f30e0 	ldr	r3, [pc, #224]	; 94a8 <scheduler+0x200>
    93c4:	e5933008 	ldr	r3, [r3, #8]
    93c8:	e3530000 	cmp	r3, #0, 0
    93cc:	0affffc5 	beq	92e8 <scheduler+0x40>
    93d0:	e5932044 	ldr	r2, [r3, #68]	; 0x44
    93d4:	e59f10cc 	ldr	r1, [pc, #204]	; 94a8 <scheduler+0x200>
    93d8:	e5812008 	str	r2, [r1, #8]
    93dc:	e3520000 	cmp	r2, #0, 0
    93e0:	0affffd8 	beq	9348 <scheduler+0xa0>
    93e4:	e59f20bc 	ldr	r2, [pc, #188]	; 94a8 <scheduler+0x200>
    93e8:	e5823000 	str	r3, [r2]
    93ec:	eb0008a1 	bl	b678 <uart_flush_tx>
    93f0:	eb000874 	bl	b5c8 <uart_can_put8>
    93f4:	e3500000 	cmp	r0, #0, 0
    93f8:	0afffffc 	beq	93f0 <scheduler+0x148>
    93fc:	e59f30a4 	ldr	r3, [pc, #164]	; 94a8 <scheduler+0x200>
    9400:	e5930004 	ldr	r0, [r3, #4]
    9404:	e5931000 	ldr	r1, [r3]
    9408:	e10f3000 	mrs	r3, CPSR
    940c:	e203301f 	and	r3, r3, #31, 0
    9410:	e3530012 	cmp	r3, #18, 0
    9414:	13530010 	cmpne	r3, #16, 0
    9418:	0a000005 	beq	9434 <scheduler+0x18c>
    941c:	e3530017 	cmp	r3, #23, 0
    9420:	13530013 	cmpne	r3, #19, 0
    9424:	0a000002 	beq	9434 <scheduler+0x18c>
    9428:	e353001f 	cmp	r3, #31, 0
    942c:	1353001b 	cmpne	r3, #27, 0
    9430:	1affffc8 	bne	9358 <scheduler+0xb0>
    9434:	e3530010 	cmp	r3, #16, 0
    9438:	0affffce 	beq	9378 <scheduler+0xd0>
    943c:	e5913040 	ldr	r3, [r1, #64]	; 0x40
    9440:	e203301f 	and	r3, r3, #31, 0
    9444:	e3530012 	cmp	r3, #18, 0
    9448:	13530010 	cmpne	r3, #16, 0
    944c:	0affffd1 	beq	9398 <scheduler+0xf0>
    9450:	e3530017 	cmp	r3, #23, 0
    9454:	13530013 	cmpne	r3, #19, 0
    9458:	0affffce 	beq	9398 <scheduler+0xf0>
    945c:	e353001f 	cmp	r3, #31, 0
    9460:	1353001b 	cmpne	r3, #27, 0
    9464:	0affffcb 	beq	9398 <scheduler+0xf0>
    9468:	e58d3004 	str	r3, [sp, #4]
    946c:	e58d3000 	str	r3, [sp]
    9470:	e3a03013 	mov	r3, #19, 0
    9474:	e59f204c 	ldr	r2, [pc, #76]	; 94c8 <scheduler+0x220>
    9478:	e59f104c 	ldr	r1, [pc, #76]	; 94cc <scheduler+0x224>
    947c:	e59f004c 	ldr	r0, [pc, #76]	; 94d0 <scheduler+0x228>
    9480:	eb0005ba 	bl	ab70 <printk>
    9484:	eb0006e9 	bl	b030 <clean_reboot>
    9488:	e3a03066 	mov	r3, #102, 0	; 0x66
    948c:	e59f2044 	ldr	r2, [pc, #68]	; 94d8 <scheduler+0x230>
    9490:	e59f1044 	ldr	r1, [pc, #68]	; 94dc <scheduler+0x234>
    9494:	e59f0044 	ldr	r0, [pc, #68]	; 94e0 <scheduler+0x238>
    9498:	eb0005b4 	bl	ab70 <printk>
    949c:	eb0006e3 	bl	b030 <clean_reboot>
    94a0:	e28dd00c 	add	sp, sp, #12, 0
    94a4:	e49df004 	pop	{pc}		; (ldr pc, [sp], #4)
    94a8:	0000ce8c 	.word	0x0000ce8c
    94ac:	0000c174 	.word	0x0000c174
    94b0:	0000c26c 	.word	0x0000c26c
    94b4:	0000c12c 	.word	0x0000c12c
    94b8:	0000c140 	.word	0x0000c140
    94bc:	0000c180 	.word	0x0000c180
    94c0:	0000c278 	.word	0x0000c278
    94c4:	0000bd64 	.word	0x0000bd64
    94c8:	0000c24c 	.word	0x0000c24c
    94cc:	0000bce0 	.word	0x0000bce0
    94d0:	0000bd24 	.word	0x0000bd24
    94d4:	0000c1d0 	.word	0x0000c1d0
    94d8:	0000c280 	.word	0x0000c280
    94dc:	0000c18c 	.word	0x0000c18c
    94e0:	0000c1f4 	.word	0x0000c1f4

000094e4 <print_regs>:
    94e4:	e92d4070 	push	{r4, r5, r6, lr}
    94e8:	e1a05000 	mov	r5, r0
    94ec:	e3a04000 	mov	r4, #0, 0
    94f0:	ea000004 	b	9508 <print_regs+0x24>
    94f4:	e7952104 	ldr	r2, [r5, r4, lsl #2]
    94f8:	e1a01004 	mov	r1, r4
    94fc:	e59f0010 	ldr	r0, [pc, #16]	; 9514 <print_regs+0x30>
    9500:	eb00059a 	bl	ab70 <printk>
    9504:	e2844001 	add	r4, r4, #1, 0
    9508:	e3540010 	cmp	r4, #16, 0
    950c:	dafffff8 	ble	94f4 <print_regs+0x10>
    9510:	e8bd8070 	pop	{r4, r5, r6, pc}
    9514:	0000c21c 	.word	0x0000c21c

00009518 <equiv_refresh>:
    9518:	e92d4030 	push	{r4, r5, lr}
    951c:	e24dd094 	sub	sp, sp, #148, 0	; 0x94
    9520:	e1a04000 	mov	r4, r0
    9524:	e10f3000 	mrs	r3, CPSR
    9528:	e3c3320f 	bic	r3, r3, #-268435456	; 0xf0000000
    952c:	e3c3301f 	bic	r3, r3, #31, 0
    9530:	e3835010 	orr	r5, r3, #16, 0
    9534:	e3a02030 	mov	r2, #48, 0	; 0x30
    9538:	e3a01000 	mov	r1, #0, 0
    953c:	e28d000c 	add	r0, sp, #12, 0
    9540:	eb000562 	bl	aad0 <memset>
    9544:	e5943050 	ldr	r3, [r4, #80]	; 0x50
    9548:	e58d3008 	str	r3, [sp, #8]
    954c:	e5943058 	ldr	r3, [r4, #88]	; 0x58
    9550:	e58d303c 	str	r3, [sp, #60]	; 0x3c
    9554:	e59f3148 	ldr	r3, [pc, #328]	; 96a4 <equiv_refresh+0x18c>
    9558:	e58d3040 	str	r3, [sp, #64]	; 0x40
    955c:	e594304c 	ldr	r3, [r4, #76]	; 0x4c
    9560:	e58d3044 	str	r3, [sp, #68]	; 0x44
    9564:	e3c53080 	bic	r3, r5, #128, 0	; 0x80
    9568:	e58d3048 	str	r3, [sp, #72]	; 0x48
    956c:	e3a05044 	mov	r5, #68, 0	; 0x44
    9570:	e1a02005 	mov	r2, r5
    9574:	e28d1008 	add	r1, sp, #8, 0
    9578:	e28d004c 	add	r0, sp, #76, 0	; 0x4c
    957c:	eb000528 	bl	aa24 <memcpy>
    9580:	e1a02005 	mov	r2, r5
    9584:	e28d104c 	add	r1, sp, #76, 0	; 0x4c
    9588:	e1a00004 	mov	r0, r4
    958c:	eb000524 	bl	aa24 <memcpy>
    9590:	e3a03000 	mov	r3, #0, 0
    9594:	e5843068 	str	r3, [r4, #104]	; 0x68
    9598:	e5843064 	str	r3, [r4, #100]	; 0x64
    959c:	e59f3104 	ldr	r3, [pc, #260]	; 96a8 <equiv_refresh+0x190>
    95a0:	e5933008 	ldr	r3, [r3, #8]
    95a4:	e3530000 	cmp	r3, #0, 0
    95a8:	0a00000d 	beq	95e4 <equiv_refresh+0xcc>
    95ac:	e3a03000 	mov	r3, #0, 0
    95b0:	e3530000 	cmp	r3, #0, 0
    95b4:	0a00001b 	beq	9628 <equiv_refresh+0x110>
    95b8:	e3a03000 	mov	r3, #0, 0
    95bc:	e5843044 	str	r3, [r4, #68]	; 0x44
    95c0:	e59f30e0 	ldr	r3, [pc, #224]	; 96a8 <equiv_refresh+0x190>
    95c4:	e593300c 	ldr	r3, [r3, #12]
    95c8:	e3530000 	cmp	r3, #0, 0
    95cc:	0a000011 	beq	9618 <equiv_refresh+0x100>
    95d0:	e5834044 	str	r4, [r3, #68]	; 0x44
    95d4:	e59f30cc 	ldr	r3, [pc, #204]	; 96a8 <equiv_refresh+0x190>
    95d8:	e583400c 	str	r4, [r3, #12]
    95dc:	e28dd094 	add	sp, sp, #148, 0	; 0x94
    95e0:	e8bd8030 	pop	{r4, r5, pc}
    95e4:	e59f30bc 	ldr	r3, [pc, #188]	; 96a8 <equiv_refresh+0x190>
    95e8:	e593300c 	ldr	r3, [r3, #12]
    95ec:	e3530000 	cmp	r3, #0, 0
    95f0:	03a03001 	moveq	r3, #1, 0
    95f4:	0affffed 	beq	95b0 <equiv_refresh+0x98>
    95f8:	e59f30ac 	ldr	r3, [pc, #172]	; 96ac <equiv_refresh+0x194>
    95fc:	e58d3000 	str	r3, [sp]
    9600:	e3a03020 	mov	r3, #32, 0
    9604:	e59f20a4 	ldr	r2, [pc, #164]	; 96b0 <equiv_refresh+0x198>
    9608:	e59f10a4 	ldr	r1, [pc, #164]	; 96b4 <equiv_refresh+0x19c>
    960c:	e59f00a4 	ldr	r0, [pc, #164]	; 96b8 <equiv_refresh+0x1a0>
    9610:	eb000556 	bl	ab70 <printk>
    9614:	eb000685 	bl	b030 <clean_reboot>
    9618:	e59f3088 	ldr	r3, [pc, #136]	; 96a8 <equiv_refresh+0x190>
    961c:	e583400c 	str	r4, [r3, #12]
    9620:	e5834008 	str	r4, [r3, #8]
    9624:	eaffffec 	b	95dc <equiv_refresh+0xc4>
    9628:	e59f3078 	ldr	r3, [pc, #120]	; 96a8 <equiv_refresh+0x190>
    962c:	e5933008 	ldr	r3, [r3, #8]
    9630:	e3a00000 	mov	r0, #0, 0
    9634:	e3530000 	cmp	r3, #0, 0
    9638:	0a00000d 	beq	9674 <equiv_refresh+0x15c>
    963c:	e594105c 	ldr	r1, [r4, #92]	; 0x5c
    9640:	e593205c 	ldr	r2, [r3, #92]	; 0x5c
    9644:	e1510002 	cmp	r1, r2
    9648:	91a00003 	movls	r0, r3
    964c:	95933044 	ldrls	r3, [r3, #68]	; 0x44
    9650:	9afffff7 	bls	9634 <equiv_refresh+0x11c>
    9654:	e3500000 	cmp	r0, #0, 0
    9658:	0a000002 	beq	9668 <equiv_refresh+0x150>
    965c:	e5804044 	str	r4, [r0, #68]	; 0x44
    9660:	e5843044 	str	r3, [r4, #68]	; 0x44
    9664:	eaffffdc 	b	95dc <equiv_refresh+0xc4>
    9668:	e59f2038 	ldr	r2, [pc, #56]	; 96a8 <equiv_refresh+0x190>
    966c:	e5824008 	str	r4, [r2, #8]
    9670:	eafffffa 	b	9660 <equiv_refresh+0x148>
    9674:	e5843044 	str	r3, [r4, #68]	; 0x44
    9678:	e59f3028 	ldr	r3, [pc, #40]	; 96a8 <equiv_refresh+0x190>
    967c:	e593300c 	ldr	r3, [r3, #12]
    9680:	e3530000 	cmp	r3, #0, 0
    9684:	15834044 	strne	r4, [r3, #68]	; 0x44
    9688:	159f3018 	ldrne	r3, [pc, #24]	; 96a8 <equiv_refresh+0x190>
    968c:	1583400c 	strne	r4, [r3, #12]
    9690:	1affffd1 	bne	95dc <equiv_refresh+0xc4>
    9694:	e59f300c 	ldr	r3, [pc, #12]	; 96a8 <equiv_refresh+0x190>
    9698:	e583400c 	str	r4, [r3, #12]
    969c:	e5834008 	str	r4, [r3, #8]
    96a0:	eaffffcd 	b	95dc <equiv_refresh+0xc4>
    96a4:	00008120 	.word	0x00008120
    96a8:	0000ce8c 	.word	0x0000ce8c
    96ac:	0000c174 	.word	0x0000c174
    96b0:	0000c26c 	.word	0x0000c26c
    96b4:	0000c12c 	.word	0x0000c12c
    96b8:	0000c140 	.word	0x0000c140

000096bc <pre_run>:
    96bc:	e52de004 	push	{lr}		; (str lr, [sp, #-4]!)
    96c0:	e24dd00c 	sub	sp, sp, #12, 0
    96c4:	e59f309c 	ldr	r3, [pc, #156]	; 9768 <pre_run+0xac>
    96c8:	e5933008 	ldr	r3, [r3, #8]
    96cc:	e3530000 	cmp	r3, #0, 0
    96d0:	0a00000c 	beq	9708 <pre_run+0x4c>
    96d4:	e3a03000 	mov	r3, #0, 0
    96d8:	e3530000 	cmp	r3, #0, 0
    96dc:	1a000016 	bne	973c <pre_run+0x80>
    96e0:	e59f3080 	ldr	r3, [pc, #128]	; 9768 <pre_run+0xac>
    96e4:	e5933004 	ldr	r3, [r3, #4]
    96e8:	e3530000 	cmp	r3, #0, 0
    96ec:	0a000018 	beq	9754 <pre_run+0x98>
    96f0:	eb0007b4 	bl	b5c8 <uart_can_put8>
    96f4:	e3500000 	cmp	r0, #0, 0
    96f8:	0afffffc 	beq	96f0 <pre_run+0x34>
    96fc:	ebfffee9 	bl	92a8 <scheduler>
    9700:	e28dd00c 	add	sp, sp, #12, 0
    9704:	e49df004 	pop	{pc}		; (ldr pc, [sp], #4)
    9708:	e59f3058 	ldr	r3, [pc, #88]	; 9768 <pre_run+0xac>
    970c:	e593300c 	ldr	r3, [r3, #12]
    9710:	e3530000 	cmp	r3, #0, 0
    9714:	03a03001 	moveq	r3, #1, 0
    9718:	0affffee 	beq	96d8 <pre_run+0x1c>
    971c:	e59f3048 	ldr	r3, [pc, #72]	; 976c <pre_run+0xb0>
    9720:	e58d3000 	str	r3, [sp]
    9724:	e3a03020 	mov	r3, #32, 0
    9728:	e59f2040 	ldr	r2, [pc, #64]	; 9770 <pre_run+0xb4>
    972c:	e59f1040 	ldr	r1, [pc, #64]	; 9774 <pre_run+0xb8>
    9730:	e59f0040 	ldr	r0, [pc, #64]	; 9778 <pre_run+0xbc>
    9734:	eb00050d 	bl	ab70 <printk>
    9738:	eb00063c 	bl	b030 <clean_reboot>
    973c:	e3a030e6 	mov	r3, #230, 0	; 0xe6
    9740:	e59f2034 	ldr	r2, [pc, #52]	; 977c <pre_run+0xc0>
    9744:	e59f1034 	ldr	r1, [pc, #52]	; 9780 <pre_run+0xc4>
    9748:	e59f0034 	ldr	r0, [pc, #52]	; 9784 <pre_run+0xc8>
    974c:	eb000507 	bl	ab70 <printk>
    9750:	eb000636 	bl	b030 <clean_reboot>
    9754:	ebfffe1e 	bl	8fd4 <pre_th_alloc>
    9758:	e59f3008 	ldr	r3, [pc, #8]	; 9768 <pre_run+0xac>
    975c:	e5830004 	str	r0, [r3, #4]
    9760:	e5830000 	str	r0, [r3]
    9764:	eaffffe1 	b	96f0 <pre_run+0x34>
    9768:	0000ce8c 	.word	0x0000ce8c
    976c:	0000c174 	.word	0x0000c174
    9770:	0000c26c 	.word	0x0000c26c
    9774:	0000c12c 	.word	0x0000c12c
    9778:	0000c140 	.word	0x0000c140
    977c:	0000c294 	.word	0x0000c294
    9780:	0000c0ac 	.word	0x0000c0ac
    9784:	0000c224 	.word	0x0000c224

00009788 <pre_cur_thread>:
    9788:	e59f3004 	ldr	r3, [pc, #4]	; 9794 <pre_cur_thread+0xc>
    978c:	e5930000 	ldr	r0, [r3]
    9790:	e12fff1e 	bx	lr
    9794:	0000ce8c 	.word	0x0000ce8c

00009798 <pre_yield>:
    9798:	e52de004 	push	{lr}		; (str lr, [sp, #-4]!)
    979c:	e24dd00c 	sub	sp, sp, #12, 0
    97a0:	e59f31d0 	ldr	r3, [pc, #464]	; 9978 <pre_yield+0x1e0>
    97a4:	e5932000 	ldr	r2, [r3]
    97a8:	e5933008 	ldr	r3, [r3, #8]
    97ac:	e3530000 	cmp	r3, #0, 0
    97b0:	0a00001c 	beq	9828 <pre_yield+0x90>
    97b4:	e3a03000 	mov	r3, #0, 0
    97b8:	e3530000 	cmp	r3, #0, 0
    97bc:	0a00002a 	beq	986c <pre_yield+0xd4>
    97c0:	e3a03000 	mov	r3, #0, 0
    97c4:	e5823044 	str	r3, [r2, #68]	; 0x44
    97c8:	e59f31a8 	ldr	r3, [pc, #424]	; 9978 <pre_yield+0x1e0>
    97cc:	e593300c 	ldr	r3, [r3, #12]
    97d0:	e3530000 	cmp	r3, #0, 0
    97d4:	0a000020 	beq	985c <pre_yield+0xc4>
    97d8:	e5832044 	str	r2, [r3, #68]	; 0x44
    97dc:	e59f3194 	ldr	r3, [pc, #404]	; 9978 <pre_yield+0x1e0>
    97e0:	e583200c 	str	r2, [r3, #12]
    97e4:	e59f318c 	ldr	r3, [pc, #396]	; 9978 <pre_yield+0x1e0>
    97e8:	e5931000 	ldr	r1, [r3]
    97ec:	e5933008 	ldr	r3, [r3, #8]
    97f0:	e3530000 	cmp	r3, #0, 0
    97f4:	0a00003b 	beq	98e8 <pre_yield+0x150>
    97f8:	e5932044 	ldr	r2, [r3, #68]	; 0x44
    97fc:	e59f0174 	ldr	r0, [pc, #372]	; 9978 <pre_yield+0x1e0>
    9800:	e5802008 	str	r2, [r0, #8]
    9804:	e3520000 	cmp	r2, #0, 0
    9808:	0a00004f 	beq	994c <pre_yield+0x1b4>
    980c:	e59f2164 	ldr	r2, [pc, #356]	; 9978 <pre_yield+0x1e0>
    9810:	e5823000 	str	r3, [r2]
    9814:	e5923000 	ldr	r3, [r2]
    9818:	e1530001 	cmp	r3, r1
    981c:	1a00004e 	bne	995c <pre_yield+0x1c4>
    9820:	e28dd00c 	add	sp, sp, #12, 0
    9824:	e49df004 	pop	{pc}		; (ldr pc, [sp], #4)
    9828:	e59f3148 	ldr	r3, [pc, #328]	; 9978 <pre_yield+0x1e0>
    982c:	e593300c 	ldr	r3, [r3, #12]
    9830:	e3530000 	cmp	r3, #0, 0
    9834:	03a03001 	moveq	r3, #1, 0
    9838:	0affffde 	beq	97b8 <pre_yield+0x20>
    983c:	e59f3138 	ldr	r3, [pc, #312]	; 997c <pre_yield+0x1e4>
    9840:	e58d3000 	str	r3, [sp]
    9844:	e3a03020 	mov	r3, #32, 0
    9848:	e59f2130 	ldr	r2, [pc, #304]	; 9980 <pre_yield+0x1e8>
    984c:	e59f1130 	ldr	r1, [pc, #304]	; 9984 <pre_yield+0x1ec>
    9850:	e59f0130 	ldr	r0, [pc, #304]	; 9988 <pre_yield+0x1f0>
    9854:	eb0004c5 	bl	ab70 <printk>
    9858:	eb0005f4 	bl	b030 <clean_reboot>
    985c:	e59f3114 	ldr	r3, [pc, #276]	; 9978 <pre_yield+0x1e0>
    9860:	e583200c 	str	r2, [r3, #12]
    9864:	e5832008 	str	r2, [r3, #8]
    9868:	eaffffdd 	b	97e4 <pre_yield+0x4c>
    986c:	e59f3104 	ldr	r3, [pc, #260]	; 9978 <pre_yield+0x1e0>
    9870:	e5933008 	ldr	r3, [r3, #8]
    9874:	e3a0c000 	mov	ip, #0, 0
    9878:	e3530000 	cmp	r3, #0, 0
    987c:	0a00000d 	beq	98b8 <pre_yield+0x120>
    9880:	e592005c 	ldr	r0, [r2, #92]	; 0x5c
    9884:	e593105c 	ldr	r1, [r3, #92]	; 0x5c
    9888:	e1500001 	cmp	r0, r1
    988c:	91a0c003 	movls	ip, r3
    9890:	95933044 	ldrls	r3, [r3, #68]	; 0x44
    9894:	9afffff7 	bls	9878 <pre_yield+0xe0>
    9898:	e35c0000 	cmp	ip, #0, 0
    989c:	0a000002 	beq	98ac <pre_yield+0x114>
    98a0:	e58c2044 	str	r2, [ip, #68]	; 0x44
    98a4:	e5823044 	str	r3, [r2, #68]	; 0x44
    98a8:	eaffffcd 	b	97e4 <pre_yield+0x4c>
    98ac:	e59f10c4 	ldr	r1, [pc, #196]	; 9978 <pre_yield+0x1e0>
    98b0:	e5812008 	str	r2, [r1, #8]
    98b4:	eafffffa 	b	98a4 <pre_yield+0x10c>
    98b8:	e5823044 	str	r3, [r2, #68]	; 0x44
    98bc:	e59f30b4 	ldr	r3, [pc, #180]	; 9978 <pre_yield+0x1e0>
    98c0:	e593300c 	ldr	r3, [r3, #12]
    98c4:	e3530000 	cmp	r3, #0, 0
    98c8:	15832044 	strne	r2, [r3, #68]	; 0x44
    98cc:	159f30a4 	ldrne	r3, [pc, #164]	; 9978 <pre_yield+0x1e0>
    98d0:	1583200c 	strne	r2, [r3, #12]
    98d4:	1affffc2 	bne	97e4 <pre_yield+0x4c>
    98d8:	e59f3098 	ldr	r3, [pc, #152]	; 9978 <pre_yield+0x1e0>
    98dc:	e583200c 	str	r2, [r3, #12]
    98e0:	e5832008 	str	r2, [r3, #8]
    98e4:	eaffffbe 	b	97e4 <pre_yield+0x4c>
    98e8:	0a00000a 	beq	9918 <pre_yield+0x180>
    98ec:	e3a02000 	mov	r2, #0, 0
    98f0:	e3520000 	cmp	r2, #0, 0
    98f4:	1affffc4 	bne	980c <pre_yield+0x74>
    98f8:	e59f308c 	ldr	r3, [pc, #140]	; 998c <pre_yield+0x1f4>
    98fc:	e58d3000 	str	r3, [sp]
    9900:	e3a03020 	mov	r3, #32, 0
    9904:	e59f2084 	ldr	r2, [pc, #132]	; 9990 <pre_yield+0x1f8>
    9908:	e59f1074 	ldr	r1, [pc, #116]	; 9984 <pre_yield+0x1ec>
    990c:	e59f0080 	ldr	r0, [pc, #128]	; 9994 <pre_yield+0x1fc>
    9910:	eb000496 	bl	ab70 <printk>
    9914:	eb0005c5 	bl	b030 <clean_reboot>
    9918:	e59f2058 	ldr	r2, [pc, #88]	; 9978 <pre_yield+0x1e0>
    991c:	e592200c 	ldr	r2, [r2, #12]
    9920:	e3520000 	cmp	r2, #0, 0
    9924:	03a02001 	moveq	r2, #1, 0
    9928:	0afffff0 	beq	98f0 <pre_yield+0x158>
    992c:	e59f3048 	ldr	r3, [pc, #72]	; 997c <pre_yield+0x1e4>
    9930:	e58d3000 	str	r3, [sp]
    9934:	e3a03020 	mov	r3, #32, 0
    9938:	e59f2040 	ldr	r2, [pc, #64]	; 9980 <pre_yield+0x1e8>
    993c:	e59f1040 	ldr	r1, [pc, #64]	; 9984 <pre_yield+0x1ec>
    9940:	e59f0040 	ldr	r0, [pc, #64]	; 9988 <pre_yield+0x1f0>
    9944:	eb000489 	bl	ab70 <printk>
    9948:	eb0005b8 	bl	b030 <clean_reboot>
    994c:	e1a02000 	mov	r2, r0
    9950:	e3a00000 	mov	r0, #0, 0
    9954:	e582000c 	str	r0, [r2, #12]
    9958:	eaffffab 	b	980c <pre_yield+0x74>
    995c:	eb000745 	bl	b678 <uart_flush_tx>
    9960:	eb000718 	bl	b5c8 <uart_can_put8>
    9964:	e3500000 	cmp	r0, #0, 0
    9968:	0afffffc 	beq	9960 <pre_yield+0x1c8>
    996c:	e59f3004 	ldr	r3, [pc, #4]	; 9978 <pre_yield+0x1e0>
    9970:	e5930000 	ldr	r0, [r3]
    9974:	ebfffcb4 	bl	8c4c <switchto>
    9978:	0000ce8c 	.word	0x0000ce8c
    997c:	0000c174 	.word	0x0000c174
    9980:	0000c26c 	.word	0x0000c26c
    9984:	0000c12c 	.word	0x0000c12c
    9988:	0000c140 	.word	0x0000c140
    998c:	0000c180 	.word	0x0000c180
    9990:	0000c278 	.word	0x0000c278
    9994:	0000bd64 	.word	0x0000bd64

00009998 <int_vec_init>:
    9998:	e92d4010 	push	{r4, lr}
    999c:	e24dd008 	sub	sp, sp, #8, 0
    99a0:	e1a04000 	mov	r4, r0
    99a4:	e10f3000 	mrs	r3, CPSR
    99a8:	e3833080 	orr	r3, r3, #128, 0	; 0x80
    99ac:	e129f003 	msr	CPSR_fc, r3
    99b0:	eb000659 	bl	b31c <dev_barrier>
    99b4:	e3e01000 	mvn	r1, #0, 0
    99b8:	e59f00ac 	ldr	r0, [pc, #172]	; 9a6c <int_vec_init+0xd4>
    99bc:	ebfff998 	bl	8024 <PUT32>
    99c0:	e3e01000 	mvn	r1, #0, 0
    99c4:	e59f00a4 	ldr	r0, [pc, #164]	; 9a70 <int_vec_init+0xd8>
    99c8:	ebfff995 	bl	8024 <PUT32>
    99cc:	eb000652 	bl	b31c <dev_barrier>
    99d0:	e3540000 	cmp	r4, #0, 0
    99d4:	0a000001 	beq	99e0 <int_vec_init+0x48>
    99d8:	e314001f 	tst	r4, #31, 0
    99dc:	0a000006 	beq	99fc <int_vec_init+0x64>
    99e0:	e58d4000 	str	r4, [sp]
    99e4:	e3a0302a 	mov	r3, #42, 0	; 0x2a
    99e8:	e59f2084 	ldr	r2, [pc, #132]	; 9a74 <int_vec_init+0xdc>
    99ec:	e59f1084 	ldr	r1, [pc, #132]	; 9a78 <int_vec_init+0xe0>
    99f0:	e59f0084 	ldr	r0, [pc, #132]	; 9a7c <int_vec_init+0xe4>
    99f4:	eb00045d 	bl	ab70 <printk>
    99f8:	eb00058c 	bl	b030 <clean_reboot>
    99fc:	ee1c3f10 	mrc	15, 0, r3, cr12, cr0, {0}
    9a00:	e1540003 	cmp	r4, r3
    9a04:	0a000007 	beq	9a28 <int_vec_init+0x90>
    9a08:	e3530000 	cmp	r3, #0, 0
    9a0c:	1a000007 	bne	9a30 <int_vec_init+0x98>
    9a10:	ee0c4f10 	mcr	15, 0, r4, cr12, cr0, {0}
    9a14:	e3a03000 	mov	r3, #0, 0
    9a18:	ee073f95 	mcr	15, 0, r3, cr7, cr5, {4}
    9a1c:	ee1c3f10 	mrc	15, 0, r3, cr12, cr0, {0}
    9a20:	e1540003 	cmp	r4, r3
    9a24:	1a000008 	bne	9a4c <int_vec_init+0xb4>
    9a28:	e28dd008 	add	sp, sp, #8, 0
    9a2c:	e8bd8010 	pop	{r4, pc}
    9a30:	e58d3000 	str	r3, [sp]
    9a34:	e3a03032 	mov	r3, #50, 0	; 0x32
    9a38:	e59f2034 	ldr	r2, [pc, #52]	; 9a74 <int_vec_init+0xdc>
    9a3c:	e59f1034 	ldr	r1, [pc, #52]	; 9a78 <int_vec_init+0xe0>
    9a40:	e59f0038 	ldr	r0, [pc, #56]	; 9a80 <int_vec_init+0xe8>
    9a44:	eb000449 	bl	ab70 <printk>
    9a48:	eb000578 	bl	b030 <clean_reboot>
    9a4c:	e58d3004 	str	r3, [sp, #4]
    9a50:	e58d4000 	str	r4, [sp]
    9a54:	e3a0303a 	mov	r3, #58, 0	; 0x3a
    9a58:	e59f2014 	ldr	r2, [pc, #20]	; 9a74 <int_vec_init+0xdc>
    9a5c:	e59f1014 	ldr	r1, [pc, #20]	; 9a78 <int_vec_init+0xe0>
    9a60:	e59f001c 	ldr	r0, [pc, #28]	; 9a84 <int_vec_init+0xec>
    9a64:	eb000441 	bl	ab70 <printk>
    9a68:	eb000570 	bl	b030 <clean_reboot>
    9a6c:	2000b21c 	.word	0x2000b21c
    9a70:	2000b220 	.word	0x2000b220
    9a74:	0000c29c 	.word	0x0000c29c
    9a78:	0000befc 	.word	0x0000befc
    9a7c:	0000bf40 	.word	0x0000bf40
    9a80:	0000bf68 	.word	0x0000bf68
    9a84:	0000bfa0 	.word	0x0000bfa0

00009a88 <pre_init>:
    9a88:	e92d4010 	push	{r4, lr}
    9a8c:	e3a01301 	mov	r1, #67108864	; 0x4000000
    9a90:	e3a00601 	mov	r0, #1048576	; 0x100000
    9a94:	eb000714 	bl	b6ec <kmalloc_init_set_start>
    9a98:	e3a00801 	mov	r0, #65536	; 0x10000
    9a9c:	eb00064b 	bl	b3d0 <timer_interrupt_init>
    9aa0:	e59f0014 	ldr	r0, [pc, #20]	; 9abc <pre_init+0x34>
    9aa4:	ebffffbb 	bl	9998 <int_vec_init>
    9aa8:	e59f0010 	ldr	r0, [pc, #16]	; 9ac0 <pre_init+0x38>
    9aac:	ebfffb14 	bl	8704 <full_except_set_interrupt>
    9ab0:	e59f000c 	ldr	r0, [pc, #12]	; 9ac4 <pre_init+0x3c>
    9ab4:	ebfffb0c 	bl	86ec <full_except_set_syscall>
    9ab8:	e8bd8010 	pop	{r4, pc}
    9abc:	00008c20 	.word	0x00008c20
    9ac0:	00008f60 	.word	0x00008f60
    9ac4:	00008cbc 	.word	0x00008cbc

00009ac8 <pre_exit>:
    9ac8:	e92d4010 	push	{r4, lr}
    9acc:	e59f3004 	ldr	r3, [pc, #4]	; 9ad8 <pre_exit+0x10>
    9ad0:	e5930004 	ldr	r0, [r3, #4]
    9ad4:	ebfffc5c 	bl	8c4c <switchto>
    9ad8:	0000ce8c 	.word	0x0000ce8c

00009adc <thread_unblock>:
    9adc:	e59f3108 	ldr	r3, [pc, #264]	; 9bec <thread_unblock+0x110>
    9ae0:	e5933008 	ldr	r3, [r3, #8]
    9ae4:	e3530000 	cmp	r3, #0, 0
    9ae8:	0a00000c 	beq	9b20 <thread_unblock+0x44>
    9aec:	e3a03000 	mov	r3, #0, 0
    9af0:	e3530000 	cmp	r3, #0, 0
    9af4:	0a00001c 	beq	9b6c <thread_unblock+0x90>
    9af8:	e3a03000 	mov	r3, #0, 0
    9afc:	e5803044 	str	r3, [r0, #68]	; 0x44
    9b00:	e59f30e4 	ldr	r3, [pc, #228]	; 9bec <thread_unblock+0x110>
    9b04:	e593300c 	ldr	r3, [r3, #12]
    9b08:	e3530000 	cmp	r3, #0, 0
    9b0c:	0a000012 	beq	9b5c <thread_unblock+0x80>
    9b10:	e5830044 	str	r0, [r3, #68]	; 0x44
    9b14:	e59f30d0 	ldr	r3, [pc, #208]	; 9bec <thread_unblock+0x110>
    9b18:	e583000c 	str	r0, [r3, #12]
    9b1c:	e12fff1e 	bx	lr
    9b20:	e59f30c4 	ldr	r3, [pc, #196]	; 9bec <thread_unblock+0x110>
    9b24:	e593300c 	ldr	r3, [r3, #12]
    9b28:	e3530000 	cmp	r3, #0, 0
    9b2c:	03a03001 	moveq	r3, #1, 0
    9b30:	0affffee 	beq	9af0 <thread_unblock+0x14>
    9b34:	e52de004 	push	{lr}		; (str lr, [sp, #-4]!)
    9b38:	e24dd00c 	sub	sp, sp, #12, 0
    9b3c:	e59f30ac 	ldr	r3, [pc, #172]	; 9bf0 <thread_unblock+0x114>
    9b40:	e58d3000 	str	r3, [sp]
    9b44:	e3a03020 	mov	r3, #32, 0
    9b48:	e59f20a4 	ldr	r2, [pc, #164]	; 9bf4 <thread_unblock+0x118>
    9b4c:	e59f10a4 	ldr	r1, [pc, #164]	; 9bf8 <thread_unblock+0x11c>
    9b50:	e59f00a4 	ldr	r0, [pc, #164]	; 9bfc <thread_unblock+0x120>
    9b54:	eb000405 	bl	ab70 <printk>
    9b58:	eb000534 	bl	b030 <clean_reboot>
    9b5c:	e59f3088 	ldr	r3, [pc, #136]	; 9bec <thread_unblock+0x110>
    9b60:	e583000c 	str	r0, [r3, #12]
    9b64:	e5830008 	str	r0, [r3, #8]
    9b68:	e12fff1e 	bx	lr
    9b6c:	e59f3078 	ldr	r3, [pc, #120]	; 9bec <thread_unblock+0x110>
    9b70:	e5933008 	ldr	r3, [r3, #8]
    9b74:	e3a0c000 	mov	ip, #0, 0
    9b78:	e3530000 	cmp	r3, #0, 0
    9b7c:	0a00000d 	beq	9bb8 <thread_unblock+0xdc>
    9b80:	e590105c 	ldr	r1, [r0, #92]	; 0x5c
    9b84:	e593205c 	ldr	r2, [r3, #92]	; 0x5c
    9b88:	e1510002 	cmp	r1, r2
    9b8c:	91a0c003 	movls	ip, r3
    9b90:	95933044 	ldrls	r3, [r3, #68]	; 0x44
    9b94:	9afffff7 	bls	9b78 <thread_unblock+0x9c>
    9b98:	e35c0000 	cmp	ip, #0, 0
    9b9c:	0a000002 	beq	9bac <thread_unblock+0xd0>
    9ba0:	e58c0044 	str	r0, [ip, #68]	; 0x44
    9ba4:	e5803044 	str	r3, [r0, #68]	; 0x44
    9ba8:	e12fff1e 	bx	lr
    9bac:	e59f2038 	ldr	r2, [pc, #56]	; 9bec <thread_unblock+0x110>
    9bb0:	e5820008 	str	r0, [r2, #8]
    9bb4:	eafffffa 	b	9ba4 <thread_unblock+0xc8>
    9bb8:	e5803044 	str	r3, [r0, #68]	; 0x44
    9bbc:	e59f3028 	ldr	r3, [pc, #40]	; 9bec <thread_unblock+0x110>
    9bc0:	e593300c 	ldr	r3, [r3, #12]
    9bc4:	e3530000 	cmp	r3, #0, 0
    9bc8:	0a000003 	beq	9bdc <thread_unblock+0x100>
    9bcc:	e5830044 	str	r0, [r3, #68]	; 0x44
    9bd0:	e59f3014 	ldr	r3, [pc, #20]	; 9bec <thread_unblock+0x110>
    9bd4:	e583000c 	str	r0, [r3, #12]
    9bd8:	e12fff1e 	bx	lr
    9bdc:	e59f3008 	ldr	r3, [pc, #8]	; 9bec <thread_unblock+0x110>
    9be0:	e583000c 	str	r0, [r3, #12]
    9be4:	e5830008 	str	r0, [r3, #8]
    9be8:	e12fff1e 	bx	lr
    9bec:	0000ce8c 	.word	0x0000ce8c
    9bf0:	0000c174 	.word	0x0000c174
    9bf4:	0000c26c 	.word	0x0000c26c
    9bf8:	0000c12c 	.word	0x0000c12c
    9bfc:	0000c140 	.word	0x0000c140

00009c00 <spin_init>:
    9c00:	e3a03001 	mov	r3, #1, 0
    9c04:	e5803000 	str	r3, [r0]
    9c08:	e12fff1e 	bx	lr

00009c0c <spin_lock>:
    9c0c:	e92d4010 	push	{r4, lr}
    9c10:	e1a04000 	mov	r4, r0
    9c14:	e1a00004 	mov	r0, r4
    9c18:	eb000025 	bl	9cb4 <try_lock>
    9c1c:	e3500000 	cmp	r0, #0, 0
    9c20:	0afffffb 	beq	9c14 <spin_lock+0x8>
    9c24:	e8bd8010 	pop	{r4, pc}

00009c28 <spin_unlock>:
    9c28:	e3a03001 	mov	r3, #1, 0
    9c2c:	e5803000 	str	r3, [r0]
    9c30:	e12fff1e 	bx	lr

00009c34 <switch_to_sys_mode>:
    9c34:	e1a0000e 	mov	r0, lr
    9c38:	e1a0100d 	mov	r1, sp
    9c3c:	f102001f 	cps	#31
    9c40:	e3a02000 	mov	r2, #0, 0
    9c44:	ee072f95 	mcr	15, 0, r2, cr7, cr5, {4}
    9c48:	e1a0d001 	mov	sp, r1
    9c4c:	e1a0e000 	mov	lr, r0
    9c50:	e12fff1e 	bx	lr

00009c54 <sys_exit>:
    9c54:	e52de004 	push	{lr}		; (str lr, [sp, #-4]!)
    9c58:	e3a00002 	mov	r0, #2, 0
    9c5c:	ef000001 	svc	0x00000001
    9c60:	e49de004 	pop	{lr}		; (ldr lr, [sp], #4)
    9c64:	e12fff1e 	bx	lr

00009c68 <sys_putc>:
    9c68:	e52de004 	push	{lr}		; (str lr, [sp, #-4]!)
    9c6c:	e1a01000 	mov	r1, r0
    9c70:	e3a00001 	mov	r0, #1, 0
    9c74:	ef000001 	svc	0x00000001
    9c78:	e49de004 	pop	{lr}		; (ldr lr, [sp], #4)
    9c7c:	e12fff1e 	bx	lr

00009c80 <cas_success>:
    9c80:	e3a00001 	mov	r0, #1, 0
    9c84:	e49df004 	pop	{pc}		; (ldr pc, [sp], #4)

00009c88 <cas_fail>:
    9c88:	e3a00000 	mov	r0, #0, 0
    9c8c:	e49df004 	pop	{pc}		; (ldr pc, [sp], #4)

00009c90 <cas>:
    9c90:	e52de004 	push	{lr}		; (str lr, [sp, #-4]!)
    9c94:	e5903000 	ldr	r3, [r0]
    9c98:	e1530001 	cmp	r3, r1
    9c9c:	1afffff9 	bne	9c88 <cas_fail>
    9ca0:	e5802000 	str	r2, [r0]
    9ca4:	e3a03000 	mov	r3, #0, 0
    9ca8:	e3530000 	cmp	r3, #0, 0
    9cac:	1afffff7 	bne	9c90 <cas>
    9cb0:	ebfffff2 	bl	9c80 <cas_success>

00009cb4 <try_lock>:
    9cb4:	e3a01000 	mov	r1, #0, 0
    9cb8:	e1002091 	swp	r2, r1, [r0]
    9cbc:	e1a00002 	mov	r0, r2
    9cc0:	e12fff3e 	blx	lr

00009cc4 <system_enable_interrupts>:
    9cc4:	e10f0000 	mrs	r0, CPSR
    9cc8:	e3c00080 	bic	r0, r0, #128, 0	; 0x80
    9ccc:	e121f000 	msr	CPSR_c, r0
    9cd0:	e12fff1e 	bx	lr

00009cd4 <system_disable_interrupts>:
    9cd4:	e10f0000 	mrs	r0, CPSR
    9cd8:	e3800080 	orr	r0, r0, #128, 0	; 0x80
    9cdc:	e121f000 	msr	CPSR_c, r0
    9ce0:	e12fff1e 	bx	lr

00009ce4 <_interrupt_table>:
    9ce4:	e59ff030 	ldr	pc, [pc, #48]	; 9d1c <_reset_asm>
    9ce8:	e59ff030 	ldr	pc, [pc, #48]	; 9d20 <_undefined_instruction_asm>
    9cec:	e59ff030 	ldr	pc, [pc, #48]	; 9d24 <_software_interrupt_asm>
    9cf0:	e59ff030 	ldr	pc, [pc, #48]	; 9d28 <_prefetch_abort_asm>
    9cf4:	e59ff030 	ldr	pc, [pc, #48]	; 9d2c <_data_abort_asm>
    9cf8:	e59ff01c 	ldr	pc, [pc, #28]	; 9d1c <_reset_asm>
    9cfc:	e59ff02c 	ldr	pc, [pc, #44]	; 9d30 <_interrupt_asm>

00009d00 <fast_interrupt_asm>:
    9d00:	e24ee004 	sub	lr, lr, #4, 0
    9d04:	e52de004 	push	{lr}		; (str lr, [sp, #-4]!)
    9d08:	e92d1fff 	push	{r0, r1, r2, r3, r4, r5, r6, r7, r8, r9, sl, fp, ip}
    9d0c:	e1a0000e 	mov	r0, lr
    9d10:	eb000509 	bl	b13c <fast_interrupt_vector>
    9d14:	e8bd1fff 	pop	{r0, r1, r2, r3, r4, r5, r6, r7, r8, r9, sl, fp, ip}
    9d18:	e8fd8000 	ldm	sp!, {pc}^

00009d1c <_reset_asm>:
    9d1c:	00009d50 	.word	0x00009d50

00009d20 <_undefined_instruction_asm>:
    9d20:	00009d58 	.word	0x00009d58

00009d24 <_software_interrupt_asm>:
    9d24:	00009d60 	.word	0x00009d60

00009d28 <_prefetch_abort_asm>:
    9d28:	00009d68 	.word	0x00009d68

00009d2c <_data_abort_asm>:
    9d2c:	00009d70 	.word	0x00009d70

00009d30 <_interrupt_asm>:
    9d30:	00009d34 	.word	0x00009d34

00009d34 <_interrupt_table_end>:
    9d34:	e3a0d409 	mov	sp, #150994944	; 0x9000000
    9d38:	e24ee004 	sub	lr, lr, #4, 0
    9d3c:	e92d5fff 	push	{r0, r1, r2, r3, r4, r5, r6, r7, r8, r9, sl, fp, ip, lr}
    9d40:	e1a0000e 	mov	r0, lr
    9d44:	eb000529 	bl	b1f0 <interrupt_vector>
    9d48:	e8bd5fff 	pop	{r0, r1, r2, r3, r4, r5, r6, r7, r8, r9, sl, fp, ip, lr}
    9d4c:	e1b0f00e 	movs	pc, lr

00009d50 <reset_asm>:
    9d50:	e24ee004 	sub	lr, lr, #4, 0
    9d54:	eb000543 	bl	b268 <reset_vector>

00009d58 <undefined_instruction_asm>:
    9d58:	e24ee004 	sub	lr, lr, #4, 0
    9d5c:	eb00055f 	bl	b2e0 <undefined_instruction_vector>

00009d60 <software_interrupt_asm>:
    9d60:	e24ee004 	sub	lr, lr, #4, 0
    9d64:	eb00054e 	bl	b2a4 <syscall_vector>

00009d68 <prefetch_abort_asm>:
    9d68:	e24ee004 	sub	lr, lr, #4, 0
    9d6c:	eb00052e 	bl	b22c <prefetch_abort_vector>

00009d70 <data_abort_asm>:
    9d70:	e24ee004 	sub	lr, lr, #4, 0
    9d74:	eb0004e1 	bl	b100 <data_abort_vector>

00009d78 <get_super_lr>:
    9d78:	e10f1000 	mrs	r1, CPSR
    9d7c:	e321f013 	msr	CPSR_c, #19, 0
    9d80:	e1a0000e 	mov	r0, lr
    9d84:	e121f001 	msr	CPSR_c, r1
    9d88:	e12fff1e 	bx	lr

00009d8c <ss_on_exit>:
    9d8c:	e92d4010 	push	{r4, lr}
    9d90:	e3a0304c 	mov	r3, #76, 0	; 0x4c
    9d94:	e59f200c 	ldr	r2, [pc, #12]	; 9da8 <ss_on_exit+0x1c>
    9d98:	e59f100c 	ldr	r1, [pc, #12]	; 9dac <ss_on_exit+0x20>
    9d9c:	e59f000c 	ldr	r0, [pc, #12]	; 9db0 <ss_on_exit+0x24>
    9da0:	eb000372 	bl	ab70 <printk>
    9da4:	eb0004a1 	bl	b030 <clean_reboot>
    9da8:	0000c3e0 	.word	0x0000c3e0
    9dac:	0000c2ac 	.word	0x0000c2ac
    9db0:	0000c2b8 	.word	0x0000c2b8

00009db4 <mode_get>:
    9db4:	e200001f 	and	r0, r0, #31, 0
    9db8:	e3500012 	cmp	r0, #18, 0
    9dbc:	13500010 	cmpne	r0, #16, 0
    9dc0:	012fff1e 	bxeq	lr
    9dc4:	e3500017 	cmp	r0, #23, 0
    9dc8:	13500013 	cmpne	r0, #19, 0
    9dcc:	012fff1e 	bxeq	lr
    9dd0:	e350001f 	cmp	r0, #31, 0
    9dd4:	1350001b 	cmpne	r0, #27, 0
    9dd8:	012fff1e 	bxeq	lr
    9ddc:	e52de004 	push	{lr}		; (str lr, [sp, #-4]!)
    9de0:	e24dd00c 	sub	sp, sp, #12, 0
    9de4:	e58d0004 	str	r0, [sp, #4]
    9de8:	e58d0000 	str	r0, [sp]
    9dec:	e3a03013 	mov	r3, #19, 0
    9df0:	e59f200c 	ldr	r2, [pc, #12]	; 9e04 <mode_get+0x50>
    9df4:	e59f100c 	ldr	r1, [pc, #12]	; 9e08 <mode_get+0x54>
    9df8:	e59f000c 	ldr	r0, [pc, #12]	; 9e0c <mode_get+0x58>
    9dfc:	eb00035b 	bl	ab70 <printk>
    9e00:	eb00048a 	bl	b030 <clean_reboot>
    9e04:	0000c3ec 	.word	0x0000c3ec
    9e08:	0000bce0 	.word	0x0000bce0
    9e0c:	0000bd24 	.word	0x0000bd24

00009e10 <switchto>:
    9e10:	e92d4010 	push	{r4, lr}
    9e14:	e1a04000 	mov	r4, r0
    9e18:	e5900040 	ldr	r0, [r0, #64]	; 0x40
    9e1c:	ebffffe4 	bl	9db4 <mode_get>
    9e20:	e3500010 	cmp	r0, #16, 0
    9e24:	0a000001 	beq	9e30 <switchto+0x20>
    9e28:	e1a00004 	mov	r0, r4
    9e2c:	ebfffac9 	bl	8958 <switchto_priv_asm>
    9e30:	e1a00004 	mov	r0, r4
    9e34:	ebfffab6 	bl	8914 <switchto_user_asm>

00009e38 <mismatch_pc_set>:
    9e38:	e52de004 	push	{lr}		; (str lr, [sp, #-4]!)
    9e3c:	e24dd00c 	sub	sp, sp, #12, 0
    9e40:	e59f2090 	ldr	r2, [pc, #144]	; 9ed8 <mismatch_pc_set+0xa0>
    9e44:	e5922000 	ldr	r2, [r2]
    9e48:	e3520000 	cmp	r2, #0, 0
    9e4c:	0a000011 	beq	9e98 <mismatch_pc_set+0x60>
    9e50:	e1a03000 	mov	r3, r0
    9e54:	ee100e90 	mrc	14, 0, r0, cr0, cr0, {4}
    9e58:	ee003e90 	mcr	14, 0, r3, cr0, cr0, {4}
    9e5c:	e3a02000 	mov	r2, #0, 0
    9e60:	ee072f95 	mcr	15, 0, r2, cr7, cr5, {4}
    9e64:	ee101eb0 	mrc	14, 0, r1, cr0, cr0, {5}
    9e68:	e59fc06c 	ldr	ip, [pc, #108]	; 9edc <mismatch_pc_set+0xa4>
    9e6c:	e00cc001 	and	ip, ip, r1
    9e70:	e59f1068 	ldr	r1, [pc, #104]	; 9ee0 <mismatch_pc_set+0xa8>
    9e74:	e18c1001 	orr	r1, ip, r1
    9e78:	ee001eb0 	mcr	14, 0, r1, cr0, cr0, {5}
    9e7c:	ee072f95 	mcr	15, 0, r2, cr7, cr5, {4}
    9e80:	ee072f95 	mcr	15, 0, r2, cr7, cr5, {4}
    9e84:	ee102e90 	mrc	14, 0, r2, cr0, cr0, {4}
    9e88:	e1530002 	cmp	r3, r2
    9e8c:	1a000009 	bne	9eb8 <mismatch_pc_set+0x80>
    9e90:	e28dd00c 	add	sp, sp, #12, 0
    9e94:	e49df004 	pop	{pc}		; (ldr pc, [sp], #4)
    9e98:	e59f3044 	ldr	r3, [pc, #68]	; 9ee4 <mismatch_pc_set+0xac>
    9e9c:	e58d3000 	str	r3, [sp]
    9ea0:	e3a0301c 	mov	r3, #28, 0
    9ea4:	e59f203c 	ldr	r2, [pc, #60]	; 9ee8 <mismatch_pc_set+0xb0>
    9ea8:	e59f103c 	ldr	r1, [pc, #60]	; 9eec <mismatch_pc_set+0xb4>
    9eac:	e59f003c 	ldr	r0, [pc, #60]	; 9ef0 <mismatch_pc_set+0xb8>
    9eb0:	eb00032e 	bl	ab70 <printk>
    9eb4:	eb00045d 	bl	b030 <clean_reboot>
    9eb8:	e59f3034 	ldr	r3, [pc, #52]	; 9ef4 <mismatch_pc_set+0xbc>
    9ebc:	e58d3000 	str	r3, [sp]
    9ec0:	e3a0302d 	mov	r3, #45, 0	; 0x2d
    9ec4:	e59f201c 	ldr	r2, [pc, #28]	; 9ee8 <mismatch_pc_set+0xb0>
    9ec8:	e59f101c 	ldr	r1, [pc, #28]	; 9eec <mismatch_pc_set+0xb4>
    9ecc:	e59f001c 	ldr	r0, [pc, #28]	; 9ef0 <mismatch_pc_set+0xb8>
    9ed0:	eb000326 	bl	ab70 <printk>
    9ed4:	eb000455 	bl	b030 <clean_reboot>
    9ed8:	0000cea8 	.word	0x0000cea8
    9edc:	ff8f3e18 	.word	0xff8f3e18
    9ee0:	004001e7 	.word	0x004001e7
    9ee4:	0000c2e4 	.word	0x0000c2e4
    9ee8:	0000c3f8 	.word	0x0000c3f8
    9eec:	0000c2ac 	.word	0x0000c2ac
    9ef0:	0000bd64 	.word	0x0000bd64
    9ef4:	0000c2f8 	.word	0x0000c2f8

00009ef8 <mismatch_fault>:
    9ef8:	e92d4030 	push	{r4, r5, lr}
    9efc:	e24dd00c 	sub	sp, sp, #12, 0
    9f00:	e590503c 	ldr	r5, [r0, #60]	; 0x3c
    9f04:	e59f3084 	ldr	r3, [pc, #132]	; 9f90 <mismatch_fault+0x98>
    9f08:	e1530005 	cmp	r3, r5
    9f0c:	0a000014 	beq	9f64 <mismatch_fault+0x6c>
    9f10:	e1a04000 	mov	r4, r0
    9f14:	e3a03000 	mov	r3, #0, 0
    9f18:	e58d3000 	str	r3, [sp]
    9f1c:	e58d3004 	str	r3, [sp, #4]
    9f20:	e59f306c 	ldr	r3, [pc, #108]	; 9f94 <mismatch_fault+0x9c>
    9f24:	e5933048 	ldr	r3, [r3, #72]	; 0x48
    9f28:	e3530000 	cmp	r3, #0, 0
    9f2c:	0a000011 	beq	9f78 <mismatch_fault+0x80>
    9f30:	e58d5000 	str	r5, [sp]
    9f34:	e58d0004 	str	r0, [sp, #4]
    9f38:	e1a0100d 	mov	r1, sp
    9f3c:	e59f2050 	ldr	r2, [pc, #80]	; 9f94 <mismatch_fault+0x9c>
    9f40:	e592004c 	ldr	r0, [r2, #76]	; 0x4c
    9f44:	e12fff33 	blx	r3
    9f48:	e1a00005 	mov	r0, r5
    9f4c:	ebffffb9 	bl	9e38 <mismatch_pc_set>
    9f50:	eb00059c 	bl	b5c8 <uart_can_put8>
    9f54:	e3500000 	cmp	r0, #0, 0
    9f58:	0afffffc 	beq	9f50 <mismatch_fault+0x58>
    9f5c:	e1a00004 	mov	r0, r4
    9f60:	ebffffaa 	bl	9e10 <switchto>
    9f64:	e1a01005 	mov	r1, r5
    9f68:	e59f0028 	ldr	r0, [pc, #40]	; 9f98 <mismatch_fault+0xa0>
    9f6c:	eb0002ff 	bl	ab70 <printk>
    9f70:	e59f0024 	ldr	r0, [pc, #36]	; 9f9c <mismatch_fault+0xa4>
    9f74:	ebffffa5 	bl	9e10 <switchto>
    9f78:	e3a03068 	mov	r3, #104, 0	; 0x68
    9f7c:	e59f201c 	ldr	r2, [pc, #28]	; 9fa0 <mismatch_fault+0xa8>
    9f80:	e59f101c 	ldr	r1, [pc, #28]	; 9fa4 <mismatch_fault+0xac>
    9f84:	e59f001c 	ldr	r0, [pc, #28]	; 9fa8 <mismatch_fault+0xb0>
    9f88:	eb0002f8 	bl	ab70 <printk>
    9f8c:	eb000427 	bl	b030 <clean_reboot>
    9f90:	00009d8c 	.word	0x00009d8c
    9f94:	0000cea8 	.word	0x0000cea8
    9f98:	0000c310 	.word	0x0000c310
    9f9c:	0000ceac 	.word	0x0000ceac
    9fa0:	0000c408 	.word	0x0000c408
    9fa4:	0000c2ac 	.word	0x0000c2ac
    9fa8:	0000c338 	.word	0x0000c338

00009fac <mismatch_on>:
    9fac:	e52de004 	push	{lr}		; (str lr, [sp, #-4]!)
    9fb0:	e24dd00c 	sub	sp, sp, #12, 0
    9fb4:	e59f3094 	ldr	r3, [pc, #148]	; a050 <mismatch_on+0xa4>
    9fb8:	e5933000 	ldr	r3, [r3]
    9fbc:	e3530000 	cmp	r3, #0, 0
    9fc0:	1a000012 	bne	a010 <mismatch_on+0x64>
    9fc4:	e59f3084 	ldr	r3, [pc, #132]	; a050 <mismatch_on+0xa4>
    9fc8:	e3a02001 	mov	r2, #1, 0
    9fcc:	e5832000 	str	r2, [r3]
    9fd0:	ee103e11 	mrc	14, 0, r3, cr0, cr1, {0}
    9fd4:	e3130902 	tst	r3, #32768	; 0x8000
    9fd8:	1a000008 	bne	a000 <mismatch_on+0x54>
    9fdc:	ee103e11 	mrc	14, 0, r3, cr0, cr1, {0}
    9fe0:	e3c33903 	bic	r3, r3, #49152	; 0xc000
    9fe4:	e3833902 	orr	r3, r3, #32768	; 0x8000
    9fe8:	ee003e11 	mcr	14, 0, r3, cr0, cr1, {0}
    9fec:	e3a03000 	mov	r3, #0, 0
    9ff0:	ee073f95 	mcr	15, 0, r3, cr7, cr5, {4}
    9ff4:	ee103e11 	mrc	14, 0, r3, cr0, cr1, {0}
    9ff8:	e3130902 	tst	r3, #32768	; 0x8000
    9ffc:	0a00000b 	beq	a030 <mismatch_on+0x84>
    a000:	e3a00000 	mov	r0, #0, 0
    a004:	ebffff8b 	bl	9e38 <mismatch_pc_set>
    a008:	e28dd00c 	add	sp, sp, #12, 0
    a00c:	e49df004 	pop	{pc}		; (ldr pc, [sp], #4)
    a010:	e59f303c 	ldr	r3, [pc, #60]	; a054 <mismatch_on+0xa8>
    a014:	e58d3000 	str	r3, [sp]
    a018:	e3a03033 	mov	r3, #51, 0	; 0x33
    a01c:	e59f2034 	ldr	r2, [pc, #52]	; a058 <mismatch_on+0xac>
    a020:	e59f1034 	ldr	r1, [pc, #52]	; a05c <mismatch_on+0xb0>
    a024:	e59f0034 	ldr	r0, [pc, #52]	; a060 <mismatch_on+0xb4>
    a028:	eb0002d0 	bl	ab70 <printk>
    a02c:	eb0003ff 	bl	b030 <clean_reboot>
    a030:	e59f302c 	ldr	r3, [pc, #44]	; a064 <mismatch_on+0xb8>
    a034:	e58d3000 	str	r3, [sp]
    a038:	e3a030a9 	mov	r3, #169, 0	; 0xa9
    a03c:	e59f2024 	ldr	r2, [pc, #36]	; a068 <mismatch_on+0xbc>
    a040:	e59f1024 	ldr	r1, [pc, #36]	; a06c <mismatch_on+0xc0>
    a044:	e59f0014 	ldr	r0, [pc, #20]	; a060 <mismatch_on+0xb4>
    a048:	eb0002c8 	bl	ab70 <printk>
    a04c:	eb0003f7 	bl	b030 <clean_reboot>
    a050:	0000cea8 	.word	0x0000cea8
    a054:	0000c370 	.word	0x0000c370
    a058:	0000c418 	.word	0x0000c418
    a05c:	0000c2ac 	.word	0x0000c2ac
    a060:	0000bd64 	.word	0x0000bd64
    a064:	0000c398 	.word	0x0000c398
    a068:	0000c424 	.word	0x0000c424
    a06c:	0000c384 	.word	0x0000c384

0000a070 <mismatch_off>:
    a070:	e59f3054 	ldr	r3, [pc, #84]	; a0cc <mismatch_off+0x5c>
    a074:	e5933000 	ldr	r3, [r3]
    a078:	e3530000 	cmp	r3, #0, 0
    a07c:	0a000008 	beq	a0a4 <mismatch_off+0x34>
    a080:	e3a03000 	mov	r3, #0, 0
    a084:	e59f2040 	ldr	r2, [pc, #64]	; a0cc <mismatch_off+0x5c>
    a088:	e5823000 	str	r3, [r2]
    a08c:	ee102eb0 	mrc	14, 0, r2, cr0, cr0, {5}
    a090:	e3c22001 	bic	r2, r2, #1, 0
    a094:	ee002eb0 	mcr	14, 0, r2, cr0, cr0, {5}
    a098:	ee073f95 	mcr	15, 0, r3, cr7, cr5, {4}
    a09c:	ee073f95 	mcr	15, 0, r3, cr7, cr5, {4}
    a0a0:	e12fff1e 	bx	lr
    a0a4:	e52de004 	push	{lr}		; (str lr, [sp, #-4]!)
    a0a8:	e24dd00c 	sub	sp, sp, #12, 0
    a0ac:	e59f301c 	ldr	r3, [pc, #28]	; a0d0 <mismatch_off+0x60>
    a0b0:	e58d3000 	str	r3, [sp]
    a0b4:	e3a0303e 	mov	r3, #62, 0	; 0x3e
    a0b8:	e59f2014 	ldr	r2, [pc, #20]	; a0d4 <mismatch_off+0x64>
    a0bc:	e59f1014 	ldr	r1, [pc, #20]	; a0d8 <mismatch_off+0x68>
    a0c0:	e59f0014 	ldr	r0, [pc, #20]	; a0dc <mismatch_off+0x6c>
    a0c4:	eb0002a9 	bl	ab70 <printk>
    a0c8:	eb0003d8 	bl	b030 <clean_reboot>
    a0cc:	0000cea8 	.word	0x0000cea8
    a0d0:	0000c2e4 	.word	0x0000c2e4
    a0d4:	0000c430 	.word	0x0000c430
    a0d8:	0000c2ac 	.word	0x0000c2ac
    a0dc:	0000bd64 	.word	0x0000bd64

0000a0e0 <mini_step_init>:
    a0e0:	e52de004 	push	{lr}		; (str lr, [sp, #-4]!)
    a0e4:	e24dd00c 	sub	sp, sp, #12, 0
    a0e8:	e3500000 	cmp	r0, #0, 0
    a0ec:	0a00001a 	beq	a15c <mini_step_init+0x7c>
    a0f0:	e59f30e4 	ldr	r3, [pc, #228]	; a1dc <mini_step_init+0xfc>
    a0f4:	e583104c 	str	r1, [r3, #76]	; 0x4c
    a0f8:	e5830048 	str	r0, [r3, #72]	; 0x48
    a0fc:	e3a00000 	mov	r0, #0, 0
    a100:	ebfff985 	bl	871c <full_except_install>
    a104:	e59f00d4 	ldr	r0, [pc, #212]	; a1e0 <mini_step_init+0x100>
    a108:	ebfff96b 	bl	86bc <full_except_set_prefetch>
    a10c:	ee103e11 	mrc	14, 0, r3, cr0, cr1, {0}
    a110:	e3130902 	tst	r3, #32768	; 0x8000
    a114:	1a000008 	bne	a13c <mini_step_init+0x5c>
    a118:	ee103e11 	mrc	14, 0, r3, cr0, cr1, {0}
    a11c:	e3c33903 	bic	r3, r3, #49152	; 0xc000
    a120:	e3833902 	orr	r3, r3, #32768	; 0x8000
    a124:	ee003e11 	mcr	14, 0, r3, cr0, cr1, {0}
    a128:	e3a03000 	mov	r3, #0, 0
    a12c:	ee073f95 	mcr	15, 0, r3, cr7, cr5, {4}
    a130:	ee103e11 	mrc	14, 0, r3, cr0, cr1, {0}
    a134:	e3130902 	tst	r3, #32768	; 0x8000
    a138:	0a00000f 	beq	a17c <mini_step_init+0x9c>
    a13c:	ee103eb0 	mrc	14, 0, r3, cr0, cr0, {5}
    a140:	e3130001 	tst	r3, #1, 0
    a144:	1a000014 	bne	a19c <mini_step_init+0xbc>
    a148:	ee103eb0 	mrc	14, 0, r3, cr0, cr0, {5}
    a14c:	e3130001 	tst	r3, #1, 0
    a150:	1a000019 	bne	a1bc <mini_step_init+0xdc>
    a154:	e28dd00c 	add	sp, sp, #12, 0
    a158:	e49df004 	pop	{pc}		; (ldr pc, [sp], #4)
    a15c:	e59f3080 	ldr	r3, [pc, #128]	; a1e4 <mini_step_init+0x104>
    a160:	e58d3000 	str	r3, [sp]
    a164:	e3a03081 	mov	r3, #129, 0	; 0x81
    a168:	e59f2078 	ldr	r2, [pc, #120]	; a1e8 <mini_step_init+0x108>
    a16c:	e59f1078 	ldr	r1, [pc, #120]	; a1ec <mini_step_init+0x10c>
    a170:	e59f0078 	ldr	r0, [pc, #120]	; a1f0 <mini_step_init+0x110>
    a174:	eb00027d 	bl	ab70 <printk>
    a178:	eb0003ac 	bl	b030 <clean_reboot>
    a17c:	e59f3070 	ldr	r3, [pc, #112]	; a1f4 <mini_step_init+0x114>
    a180:	e58d3000 	str	r3, [sp]
    a184:	e3a030a9 	mov	r3, #169, 0	; 0xa9
    a188:	e59f2068 	ldr	r2, [pc, #104]	; a1f8 <mini_step_init+0x118>
    a18c:	e59f1068 	ldr	r1, [pc, #104]	; a1fc <mini_step_init+0x11c>
    a190:	e59f0058 	ldr	r0, [pc, #88]	; a1f0 <mini_step_init+0x110>
    a194:	eb000275 	bl	ab70 <printk>
    a198:	eb0003a4 	bl	b030 <clean_reboot>
    a19c:	e59f305c 	ldr	r3, [pc, #92]	; a200 <mini_step_init+0x120>
    a1a0:	e58d3000 	str	r3, [sp]
    a1a4:	e3a03090 	mov	r3, #144, 0	; 0x90
    a1a8:	e59f2038 	ldr	r2, [pc, #56]	; a1e8 <mini_step_init+0x108>
    a1ac:	e59f1038 	ldr	r1, [pc, #56]	; a1ec <mini_step_init+0x10c>
    a1b0:	e59f0038 	ldr	r0, [pc, #56]	; a1f0 <mini_step_init+0x110>
    a1b4:	eb00026d 	bl	ab70 <printk>
    a1b8:	eb00039c 	bl	b030 <clean_reboot>
    a1bc:	e59f303c 	ldr	r3, [pc, #60]	; a200 <mini_step_init+0x120>
    a1c0:	e58d3000 	str	r3, [sp]
    a1c4:	e3a03091 	mov	r3, #145, 0	; 0x91
    a1c8:	e59f2018 	ldr	r2, [pc, #24]	; a1e8 <mini_step_init+0x108>
    a1cc:	e59f1018 	ldr	r1, [pc, #24]	; a1ec <mini_step_init+0x10c>
    a1d0:	e59f0018 	ldr	r0, [pc, #24]	; a1f0 <mini_step_init+0x110>
    a1d4:	eb000265 	bl	ab70 <printk>
    a1d8:	eb000394 	bl	b030 <clean_reboot>
    a1dc:	0000cea8 	.word	0x0000cea8
    a1e0:	00009ef8 	.word	0x00009ef8
    a1e4:	0000c1cc 	.word	0x0000c1cc
    a1e8:	0000c440 	.word	0x0000c440
    a1ec:	0000c2ac 	.word	0x0000c2ac
    a1f0:	0000bd64 	.word	0x0000bd64
    a1f4:	0000c398 	.word	0x0000c398
    a1f8:	0000c424 	.word	0x0000c424
    a1fc:	0000c384 	.word	0x0000c384
    a200:	0000c3ac 	.word	0x0000c3ac

0000a204 <pre_mini_step_init>:
    a204:	e52de004 	push	{lr}		; (str lr, [sp, #-4]!)
    a208:	e24dd00c 	sub	sp, sp, #12, 0
    a20c:	e3500000 	cmp	r0, #0, 0
    a210:	0a000018 	beq	a278 <pre_mini_step_init+0x74>
    a214:	e59f30dc 	ldr	r3, [pc, #220]	; a2f8 <pre_mini_step_init+0xf4>
    a218:	e583104c 	str	r1, [r3, #76]	; 0x4c
    a21c:	e5830048 	str	r0, [r3, #72]	; 0x48
    a220:	e59f00d4 	ldr	r0, [pc, #212]	; a2fc <pre_mini_step_init+0xf8>
    a224:	ebfff924 	bl	86bc <full_except_set_prefetch>
    a228:	ee103e11 	mrc	14, 0, r3, cr0, cr1, {0}
    a22c:	e3130902 	tst	r3, #32768	; 0x8000
    a230:	1a000008 	bne	a258 <pre_mini_step_init+0x54>
    a234:	ee103e11 	mrc	14, 0, r3, cr0, cr1, {0}
    a238:	e3c33903 	bic	r3, r3, #49152	; 0xc000
    a23c:	e3833902 	orr	r3, r3, #32768	; 0x8000
    a240:	ee003e11 	mcr	14, 0, r3, cr0, cr1, {0}
    a244:	e3a03000 	mov	r3, #0, 0
    a248:	ee073f95 	mcr	15, 0, r3, cr7, cr5, {4}
    a24c:	ee103e11 	mrc	14, 0, r3, cr0, cr1, {0}
    a250:	e3130902 	tst	r3, #32768	; 0x8000
    a254:	0a00000f 	beq	a298 <pre_mini_step_init+0x94>
    a258:	ee103eb0 	mrc	14, 0, r3, cr0, cr0, {5}
    a25c:	e3130001 	tst	r3, #1, 0
    a260:	1a000014 	bne	a2b8 <pre_mini_step_init+0xb4>
    a264:	ee103eb0 	mrc	14, 0, r3, cr0, cr0, {5}
    a268:	e3130001 	tst	r3, #1, 0
    a26c:	1a000019 	bne	a2d8 <pre_mini_step_init+0xd4>
    a270:	e28dd00c 	add	sp, sp, #12, 0
    a274:	e49df004 	pop	{pc}		; (ldr pc, [sp], #4)
    a278:	e59f3080 	ldr	r3, [pc, #128]	; a300 <pre_mini_step_init+0xfc>
    a27c:	e58d3000 	str	r3, [sp]
    a280:	e3a03096 	mov	r3, #150, 0	; 0x96
    a284:	e59f2078 	ldr	r2, [pc, #120]	; a304 <pre_mini_step_init+0x100>
    a288:	e59f1078 	ldr	r1, [pc, #120]	; a308 <pre_mini_step_init+0x104>
    a28c:	e59f0078 	ldr	r0, [pc, #120]	; a30c <pre_mini_step_init+0x108>
    a290:	eb000236 	bl	ab70 <printk>
    a294:	eb000365 	bl	b030 <clean_reboot>
    a298:	e59f3070 	ldr	r3, [pc, #112]	; a310 <pre_mini_step_init+0x10c>
    a29c:	e58d3000 	str	r3, [sp]
    a2a0:	e3a030a9 	mov	r3, #169, 0	; 0xa9
    a2a4:	e59f2068 	ldr	r2, [pc, #104]	; a314 <pre_mini_step_init+0x110>
    a2a8:	e59f1068 	ldr	r1, [pc, #104]	; a318 <pre_mini_step_init+0x114>
    a2ac:	e59f0058 	ldr	r0, [pc, #88]	; a30c <pre_mini_step_init+0x108>
    a2b0:	eb00022e 	bl	ab70 <printk>
    a2b4:	eb00035d 	bl	b030 <clean_reboot>
    a2b8:	e59f305c 	ldr	r3, [pc, #92]	; a31c <pre_mini_step_init+0x118>
    a2bc:	e58d3000 	str	r3, [sp]
    a2c0:	e3a030a0 	mov	r3, #160, 0	; 0xa0
    a2c4:	e59f2038 	ldr	r2, [pc, #56]	; a304 <pre_mini_step_init+0x100>
    a2c8:	e59f1038 	ldr	r1, [pc, #56]	; a308 <pre_mini_step_init+0x104>
    a2cc:	e59f0038 	ldr	r0, [pc, #56]	; a30c <pre_mini_step_init+0x108>
    a2d0:	eb000226 	bl	ab70 <printk>
    a2d4:	eb000355 	bl	b030 <clean_reboot>
    a2d8:	e59f303c 	ldr	r3, [pc, #60]	; a31c <pre_mini_step_init+0x118>
    a2dc:	e58d3000 	str	r3, [sp]
    a2e0:	e3a030a1 	mov	r3, #161, 0	; 0xa1
    a2e4:	e59f2018 	ldr	r2, [pc, #24]	; a304 <pre_mini_step_init+0x100>
    a2e8:	e59f1018 	ldr	r1, [pc, #24]	; a308 <pre_mini_step_init+0x104>
    a2ec:	e59f0018 	ldr	r0, [pc, #24]	; a30c <pre_mini_step_init+0x108>
    a2f0:	eb00021e 	bl	ab70 <printk>
    a2f4:	eb00034d 	bl	b030 <clean_reboot>
    a2f8:	0000cea8 	.word	0x0000cea8
    a2fc:	00009ef8 	.word	0x00009ef8
    a300:	0000c1cc 	.word	0x0000c1cc
    a304:	0000c450 	.word	0x0000c450
    a308:	0000c2ac 	.word	0x0000c2ac
    a30c:	0000bd64 	.word	0x0000bd64
    a310:	0000c398 	.word	0x0000c398
    a314:	0000c424 	.word	0x0000c424
    a318:	0000c384 	.word	0x0000c384
    a31c:	0000c3ac 	.word	0x0000c3ac

0000a320 <mini_step_run>:
    a320:	e92d4070 	push	{r4, r5, r6, lr}
    a324:	e24dd050 	sub	sp, sp, #80, 0	; 0x50
    a328:	e1a05000 	mov	r5, r0
    a32c:	e59f31b0 	ldr	r3, [pc, #432]	; a4e4 <mini_step_run+0x1c4>
    a330:	e5933050 	ldr	r3, [r3, #80]	; 0x50
    a334:	e3530000 	cmp	r3, #0, 0
    a338:	0a000011 	beq	a384 <mini_step_run+0x64>
    a33c:	e59f31a0 	ldr	r3, [pc, #416]	; a4e4 <mini_step_run+0x1c4>
    a340:	e5933050 	ldr	r3, [r3, #80]	; 0x50
    a344:	e2836902 	add	r6, r3, #32768	; 0x8000
    a348:	e10f3000 	mrs	r3, CPSR
    a34c:	e3c3320f 	bic	r3, r3, #-268435456	; 0xf0000000
    a350:	e3c3301f 	bic	r3, r3, #31, 0
    a354:	e3834010 	orr	r4, r3, #16, 0
    a358:	e3a03010 	mov	r3, #16, 0
    a35c:	e3530000 	cmp	r3, #0, 0
    a360:	1a00000c 	bne	a398 <mini_step_run+0x78>
    a364:	e58d3004 	str	r3, [sp, #4]
    a368:	e58d3000 	str	r3, [sp]
    a36c:	e3a03013 	mov	r3, #19, 0
    a370:	e59f2170 	ldr	r2, [pc, #368]	; a4e8 <mini_step_run+0x1c8>
    a374:	e59f1170 	ldr	r1, [pc, #368]	; a4ec <mini_step_run+0x1cc>
    a378:	e59f0170 	ldr	r0, [pc, #368]	; a4f0 <mini_step_run+0x1d0>
    a37c:	eb0001fb 	bl	ab70 <printk>
    a380:	eb00032a 	bl	b030 <clean_reboot>
    a384:	e3a00902 	mov	r0, #32768	; 0x8000
    a388:	eb00053f 	bl	b88c <kmalloc>
    a38c:	e59f3150 	ldr	r3, [pc, #336]	; a4e4 <mini_step_run+0x1c4>
    a390:	e5830050 	str	r0, [r3, #80]	; 0x50
    a394:	eaffffe8 	b	a33c <mini_step_run+0x1c>
    a398:	e3530010 	cmp	r3, #16, 0
    a39c:	1a00002a 	bne	a44c <mini_step_run+0x12c>
    a3a0:	e3a02034 	mov	r2, #52, 0	; 0x34
    a3a4:	e3a01000 	mov	r1, #0, 0
    a3a8:	e28d000c 	add	r0, sp, #12, 0
    a3ac:	eb0001c7 	bl	aad0 <memset>
    a3b0:	e58d6040 	str	r6, [sp, #64]	; 0x40
    a3b4:	e59f3138 	ldr	r3, [pc, #312]	; a4f4 <mini_step_run+0x1d4>
    a3b8:	e58d3044 	str	r3, [sp, #68]	; 0x44
    a3bc:	e58d5048 	str	r5, [sp, #72]	; 0x48
    a3c0:	e58d404c 	str	r4, [sp, #76]	; 0x4c
    a3c4:	ebfffef8 	bl	9fac <mismatch_on>
    a3c8:	e10f3000 	mrs	r3, CPSR
    a3cc:	e203301f 	and	r3, r3, #31, 0
    a3d0:	e3530012 	cmp	r3, #18, 0
    a3d4:	13530010 	cmpne	r3, #16, 0
    a3d8:	0a000005 	beq	a3f4 <mini_step_run+0xd4>
    a3dc:	e3530017 	cmp	r3, #23, 0
    a3e0:	13530013 	cmpne	r3, #19, 0
    a3e4:	0a000002 	beq	a3f4 <mini_step_run+0xd4>
    a3e8:	e353001f 	cmp	r3, #31, 0
    a3ec:	1353001b 	cmpne	r3, #27, 0
    a3f0:	1a00001d 	bne	a46c <mini_step_run+0x14c>
    a3f4:	e3530010 	cmp	r3, #16, 0
    a3f8:	0a000023 	beq	a48c <mini_step_run+0x16c>
    a3fc:	e59d304c 	ldr	r3, [sp, #76]	; 0x4c
    a400:	e203301f 	and	r3, r3, #31, 0
    a404:	e3530012 	cmp	r3, #18, 0
    a408:	13530010 	cmpne	r3, #16, 0
    a40c:	0a000005 	beq	a428 <mini_step_run+0x108>
    a410:	e3530017 	cmp	r3, #23, 0
    a414:	13530013 	cmpne	r3, #19, 0
    a418:	0a000002 	beq	a428 <mini_step_run+0x108>
    a41c:	e353001f 	cmp	r3, #31, 0
    a420:	1353001b 	cmpne	r3, #27, 0
    a424:	1a000020 	bne	a4ac <mini_step_run+0x18c>
    a428:	e3530010 	cmp	r3, #16, 0
    a42c:	1a000026 	bne	a4cc <mini_step_run+0x1ac>
    a430:	e28d100c 	add	r1, sp, #12, 0
    a434:	e59f00bc 	ldr	r0, [pc, #188]	; a4f8 <mini_step_run+0x1d8>
    a438:	ebfff970 	bl	8a00 <cswitchto_user_asm>
    a43c:	ebffff0b 	bl	a070 <mismatch_off>
    a440:	e59d000c 	ldr	r0, [sp, #12]
    a444:	e28dd050 	add	sp, sp, #80, 0	; 0x50
    a448:	e8bd8070 	pop	{r4, r5, r6, pc}
    a44c:	e59f30a8 	ldr	r3, [pc, #168]	; a4fc <mini_step_run+0x1dc>
    a450:	e58d3000 	str	r3, [sp]
    a454:	e3a030b5 	mov	r3, #181, 0	; 0xb5
    a458:	e59f20a0 	ldr	r2, [pc, #160]	; a500 <mini_step_run+0x1e0>
    a45c:	e59f10a0 	ldr	r1, [pc, #160]	; a504 <mini_step_run+0x1e4>
    a460:	e59f00a0 	ldr	r0, [pc, #160]	; a508 <mini_step_run+0x1e8>
    a464:	eb0001c1 	bl	ab70 <printk>
    a468:	eb0002f0 	bl	b030 <clean_reboot>
    a46c:	e58d3004 	str	r3, [sp, #4]
    a470:	e58d3000 	str	r3, [sp]
    a474:	e3a03013 	mov	r3, #19, 0
    a478:	e59f2068 	ldr	r2, [pc, #104]	; a4e8 <mini_step_run+0x1c8>
    a47c:	e59f1068 	ldr	r1, [pc, #104]	; a4ec <mini_step_run+0x1cc>
    a480:	e59f0068 	ldr	r0, [pc, #104]	; a4f0 <mini_step_run+0x1d0>
    a484:	eb0001b9 	bl	ab70 <printk>
    a488:	eb0002e8 	bl	b030 <clean_reboot>
    a48c:	e59f3078 	ldr	r3, [pc, #120]	; a50c <mini_step_run+0x1ec>
    a490:	e58d3000 	str	r3, [sp]
    a494:	e3a03060 	mov	r3, #96, 0	; 0x60
    a498:	e59f2070 	ldr	r2, [pc, #112]	; a510 <mini_step_run+0x1f0>
    a49c:	e59f1070 	ldr	r1, [pc, #112]	; a514 <mini_step_run+0x1f4>
    a4a0:	e59f0060 	ldr	r0, [pc, #96]	; a508 <mini_step_run+0x1e8>
    a4a4:	eb0001b1 	bl	ab70 <printk>
    a4a8:	eb0002e0 	bl	b030 <clean_reboot>
    a4ac:	e58d3004 	str	r3, [sp, #4]
    a4b0:	e58d3000 	str	r3, [sp]
    a4b4:	e3a03013 	mov	r3, #19, 0
    a4b8:	e59f2028 	ldr	r2, [pc, #40]	; a4e8 <mini_step_run+0x1c8>
    a4bc:	e59f1028 	ldr	r1, [pc, #40]	; a4ec <mini_step_run+0x1cc>
    a4c0:	e59f0028 	ldr	r0, [pc, #40]	; a4f0 <mini_step_run+0x1d0>
    a4c4:	eb0001a9 	bl	ab70 <printk>
    a4c8:	eb0002d8 	bl	b030 <clean_reboot>
    a4cc:	e3a03066 	mov	r3, #102, 0	; 0x66
    a4d0:	e59f2038 	ldr	r2, [pc, #56]	; a510 <mini_step_run+0x1f0>
    a4d4:	e59f1038 	ldr	r1, [pc, #56]	; a514 <mini_step_run+0x1f4>
    a4d8:	e59f0038 	ldr	r0, [pc, #56]	; a518 <mini_step_run+0x1f8>
    a4dc:	eb0001a3 	bl	ab70 <printk>
    a4e0:	eb0002d2 	bl	b030 <clean_reboot>
    a4e4:	0000cea8 	.word	0x0000cea8
    a4e8:	0000c3ec 	.word	0x0000c3ec
    a4ec:	0000bce0 	.word	0x0000bce0
    a4f0:	0000bd24 	.word	0x0000bd24
    a4f4:	00009d8c 	.word	0x00009d8c
    a4f8:	0000ceac 	.word	0x0000ceac
    a4fc:	0000c3c4 	.word	0x0000c3c4
    a500:	0000c464 	.word	0x0000c464
    a504:	0000c2ac 	.word	0x0000c2ac
    a508:	0000bd64 	.word	0x0000bd64
    a50c:	0000c1d0 	.word	0x0000c1d0
    a510:	0000c474 	.word	0x0000c474
    a514:	0000c18c 	.word	0x0000c18c
    a518:	0000c1f4 	.word	0x0000c1f4

0000a51c <mismatch_run>:
    a51c:	e92d4010 	push	{r4, lr}
    a520:	e1a04000 	mov	r4, r0
    a524:	e590003c 	ldr	r0, [r0, #60]	; 0x3c
    a528:	ebfffe42 	bl	9e38 <mismatch_pc_set>
    a52c:	eb000425 	bl	b5c8 <uart_can_put8>
    a530:	e3500000 	cmp	r0, #0, 0
    a534:	0afffffc 	beq	a52c <mismatch_run+0x10>
    a538:	e1a00004 	mov	r0, r4
    a53c:	ebfffe33 	bl	9e10 <switchto>

0000a540 <mmu_is_enabled>:
    a540:	e92d4010 	push	{r4, lr}
    a544:	eb0000be 	bl	a844 <cp15_ctrl_reg1_rd>
    a548:	e2000001 	and	r0, r0, #1, 0
    a54c:	e8bd8010 	pop	{r4, pc}

0000a550 <mmu_disable_set>:
    a550:	e92d4030 	push	{r4, r5, lr}
    a554:	e24dd00c 	sub	sp, sp, #12, 0
    a558:	e3100001 	tst	r0, #1, 0
    a55c:	1a000007 	bne	a580 <mmu_disable_set+0x30>
    a560:	e1a04000 	mov	r4, r0
    a564:	e1a05120 	lsr	r5, r0, #2
    a568:	e2055001 	and	r5, r5, #1, 0
    a56c:	eb0000e1 	bl	a8f8 <mmu_disable_set_asm>
    a570:	e3550000 	cmp	r5, #0, 0
    a574:	1a000009 	bne	a5a0 <mmu_disable_set+0x50>
    a578:	e28dd00c 	add	sp, sp, #12, 0
    a57c:	e8bd8030 	pop	{r4, r5, pc}
    a580:	e59f3024 	ldr	r3, [pc, #36]	; a5ac <mmu_disable_set+0x5c>
    a584:	e58d3000 	str	r3, [sp]
    a588:	e3a03018 	mov	r3, #24, 0
    a58c:	e59f201c 	ldr	r2, [pc, #28]	; a5b0 <mmu_disable_set+0x60>
    a590:	e59f101c 	ldr	r1, [pc, #28]	; a5b4 <mmu_disable_set+0x64>
    a594:	e59f001c 	ldr	r0, [pc, #28]	; a5b8 <mmu_disable_set+0x68>
    a598:	eb000174 	bl	ab70 <printk>
    a59c:	eb0002a3 	bl	b030 <clean_reboot>
    a5a0:	e3840004 	orr	r0, r4, #4, 0
    a5a4:	eb0000a9 	bl	a850 <cp15_ctrl_reg1_wr>
    a5a8:	eafffff2 	b	a578 <mmu_disable_set+0x28>
    a5ac:	0000c490 	.word	0x0000c490
    a5b0:	0000c500 	.word	0x0000c500
    a5b4:	0000c488 	.word	0x0000c488
    a5b8:	0000bd64 	.word	0x0000bd64

0000a5bc <mmu_disable>:
    a5bc:	e52de004 	push	{lr}		; (str lr, [sp, #-4]!)
    a5c0:	e24dd00c 	sub	sp, sp, #12, 0
    a5c4:	eb00009e 	bl	a844 <cp15_ctrl_reg1_rd>
    a5c8:	e3100001 	tst	r0, #1, 0
    a5cc:	0a000003 	beq	a5e0 <mmu_disable+0x24>
    a5d0:	e3c00001 	bic	r0, r0, #1, 0
    a5d4:	ebffffdd 	bl	a550 <mmu_disable_set>
    a5d8:	e28dd00c 	add	sp, sp, #12, 0
    a5dc:	e49df004 	pop	{pc}		; (ldr pc, [sp], #4)
    a5e0:	e59f3018 	ldr	r3, [pc, #24]	; a600 <mmu_disable+0x44>
    a5e4:	e58d3000 	str	r3, [sp]
    a5e8:	e3a0302c 	mov	r3, #44, 0	; 0x2c
    a5ec:	e59f2010 	ldr	r2, [pc, #16]	; a604 <mmu_disable+0x48>
    a5f0:	e59f1010 	ldr	r1, [pc, #16]	; a608 <mmu_disable+0x4c>
    a5f4:	e59f0010 	ldr	r0, [pc, #16]	; a60c <mmu_disable+0x50>
    a5f8:	eb00015c 	bl	ab70 <printk>
    a5fc:	eb00028b 	bl	b030 <clean_reboot>
    a600:	0000c4a0 	.word	0x0000c4a0
    a604:	0000c510 	.word	0x0000c510
    a608:	0000c488 	.word	0x0000c488
    a60c:	0000bd64 	.word	0x0000bd64

0000a610 <mmu_enable_set>:
    a610:	e52de004 	push	{lr}		; (str lr, [sp, #-4]!)
    a614:	e24dd00c 	sub	sp, sp, #12, 0
    a618:	e3100001 	tst	r0, #1, 0
    a61c:	0a000002 	beq	a62c <mmu_enable_set+0x1c>
    a620:	eb0000cd 	bl	a95c <mmu_enable_set_asm>
    a624:	e28dd00c 	add	sp, sp, #12, 0
    a628:	e49df004 	pop	{pc}		; (ldr pc, [sp], #4)
    a62c:	e59f3018 	ldr	r3, [pc, #24]	; a64c <mmu_enable_set+0x3c>
    a630:	e58d3000 	str	r3, [sp]
    a634:	e3a03036 	mov	r3, #54, 0	; 0x36
    a638:	e59f2010 	ldr	r2, [pc, #16]	; a650 <mmu_enable_set+0x40>
    a63c:	e59f1010 	ldr	r1, [pc, #16]	; a654 <mmu_enable_set+0x44>
    a640:	e59f0010 	ldr	r0, [pc, #16]	; a658 <mmu_enable_set+0x48>
    a644:	eb000149 	bl	ab70 <printk>
    a648:	eb000278 	bl	b030 <clean_reboot>
    a64c:	0000c4a0 	.word	0x0000c4a0
    a650:	0000c51c 	.word	0x0000c51c
    a654:	0000c488 	.word	0x0000c488
    a658:	0000bd64 	.word	0x0000bd64

0000a65c <mmu_enable>:
    a65c:	e52de004 	push	{lr}		; (str lr, [sp, #-4]!)
    a660:	e24dd00c 	sub	sp, sp, #12, 0
    a664:	eb000076 	bl	a844 <cp15_ctrl_reg1_rd>
    a668:	e3100001 	tst	r0, #1, 0
    a66c:	1a000003 	bne	a680 <mmu_enable+0x24>
    a670:	e3800001 	orr	r0, r0, #1, 0
    a674:	ebffffe5 	bl	a610 <mmu_enable_set>
    a678:	e28dd00c 	add	sp, sp, #12, 0
    a67c:	e49df004 	pop	{pc}		; (ldr pc, [sp], #4)
    a680:	e59f3018 	ldr	r3, [pc, #24]	; a6a0 <mmu_enable+0x44>
    a684:	e58d3000 	str	r3, [sp]
    a688:	e3a03041 	mov	r3, #65, 0	; 0x41
    a68c:	e59f2010 	ldr	r2, [pc, #16]	; a6a4 <mmu_enable+0x48>
    a690:	e59f1010 	ldr	r1, [pc, #16]	; a6a8 <mmu_enable+0x4c>
    a694:	e59f0010 	ldr	r0, [pc, #16]	; a6ac <mmu_enable+0x50>
    a698:	eb000134 	bl	ab70 <printk>
    a69c:	eb000263 	bl	b030 <clean_reboot>
    a6a0:	0000c490 	.word	0x0000c490
    a6a4:	0000c52c 	.word	0x0000c52c
    a6a8:	0000c488 	.word	0x0000c488
    a6ac:	0000bd64 	.word	0x0000bd64

0000a6b0 <set_procid_ttbr0>:
    a6b0:	e52de004 	push	{lr}		; (str lr, [sp, #-4]!)
    a6b4:	e24dd00c 	sub	sp, sp, #12, 0
    a6b8:	e1a03001 	mov	r3, r1
    a6bc:	e1a01002 	mov	r1, r2
    a6c0:	e1b02c20 	lsrs	r2, r0, #24
    a6c4:	1a000008 	bne	a6ec <set_procid_ttbr0+0x3c>
    a6c8:	e3500040 	cmp	r0, #64, 0	; 0x40
    a6cc:	9a00000e 	bls	a70c <set_procid_ttbr0+0x5c>
    a6d0:	e2432001 	sub	r2, r3, #1, 0
    a6d4:	e352003e 	cmp	r2, #62, 0	; 0x3e
    a6d8:	8a000013 	bhi	a72c <set_procid_ttbr0+0x7c>
    a6dc:	e1830400 	orr	r0, r3, r0, lsl #8
    a6e0:	eb000077 	bl	a8c4 <cp15_set_procid_ttbr0>
    a6e4:	e28dd00c 	add	sp, sp, #12, 0
    a6e8:	e49df004 	pop	{pc}		; (ldr pc, [sp], #4)
    a6ec:	e59f3058 	ldr	r3, [pc, #88]	; a74c <set_procid_ttbr0+0x9c>
    a6f0:	e58d3000 	str	r3, [sp]
    a6f4:	e3a0304a 	mov	r3, #74, 0	; 0x4a
    a6f8:	e59f2050 	ldr	r2, [pc, #80]	; a750 <set_procid_ttbr0+0xa0>
    a6fc:	e59f1050 	ldr	r1, [pc, #80]	; a754 <set_procid_ttbr0+0xa4>
    a700:	e59f0050 	ldr	r0, [pc, #80]	; a758 <set_procid_ttbr0+0xa8>
    a704:	eb000119 	bl	ab70 <printk>
    a708:	eb000248 	bl	b030 <clean_reboot>
    a70c:	e59f3048 	ldr	r3, [pc, #72]	; a75c <set_procid_ttbr0+0xac>
    a710:	e58d3000 	str	r3, [sp]
    a714:	e3a0304b 	mov	r3, #75, 0	; 0x4b
    a718:	e59f2030 	ldr	r2, [pc, #48]	; a750 <set_procid_ttbr0+0xa0>
    a71c:	e59f1030 	ldr	r1, [pc, #48]	; a754 <set_procid_ttbr0+0xa4>
    a720:	e59f0030 	ldr	r0, [pc, #48]	; a758 <set_procid_ttbr0+0xa8>
    a724:	eb000111 	bl	ab70 <printk>
    a728:	eb000240 	bl	b030 <clean_reboot>
    a72c:	e59f302c 	ldr	r3, [pc, #44]	; a760 <set_procid_ttbr0+0xb0>
    a730:	e58d3000 	str	r3, [sp]
    a734:	e3a0304c 	mov	r3, #76, 0	; 0x4c
    a738:	e59f2010 	ldr	r2, [pc, #16]	; a750 <set_procid_ttbr0+0xa0>
    a73c:	e59f1010 	ldr	r1, [pc, #16]	; a754 <set_procid_ttbr0+0xa4>
    a740:	e59f0010 	ldr	r0, [pc, #16]	; a758 <set_procid_ttbr0+0xa8>
    a744:	eb000109 	bl	ab70 <printk>
    a748:	eb000238 	bl	b030 <clean_reboot>
    a74c:	0000c4b0 	.word	0x0000c4b0
    a750:	0000c538 	.word	0x0000c538
    a754:	0000c488 	.word	0x0000c488
    a758:	0000bd64 	.word	0x0000bd64
    a75c:	0000c4c4 	.word	0x0000c4c4
    a760:	0000c4d0 	.word	0x0000c4d0

0000a764 <mmu_init>:
    a764:	e52de004 	push	{lr}		; (str lr, [sp, #-4]!)
    a768:	e24dd00c 	sub	sp, sp, #12, 0
    a76c:	eb00003b 	bl	a860 <mmu_reset>
    a770:	eb000033 	bl	a844 <cp15_ctrl_reg1_rd>
    a774:	e3800502 	orr	r0, r0, #8388608	; 0x800000
    a778:	eb000034 	bl	a850 <cp15_ctrl_reg1_wr>
    a77c:	eb000030 	bl	a844 <cp15_ctrl_reg1_rd>
    a780:	e3100502 	tst	r0, #8388608	; 0x800000
    a784:	0a000003 	beq	a798 <mmu_init+0x34>
    a788:	e3100001 	tst	r0, #1, 0
    a78c:	1a000009 	bne	a7b8 <mmu_init+0x54>
    a790:	e28dd00c 	add	sp, sp, #12, 0
    a794:	e49df004 	pop	{pc}		; (ldr pc, [sp], #4)
    a798:	e59f3038 	ldr	r3, [pc, #56]	; a7d8 <mmu_init+0x74>
    a79c:	e58d3000 	str	r3, [sp]
    a7a0:	e3a03068 	mov	r3, #104, 0	; 0x68
    a7a4:	e59f2030 	ldr	r2, [pc, #48]	; a7dc <mmu_init+0x78>
    a7a8:	e59f1030 	ldr	r1, [pc, #48]	; a7e0 <mmu_init+0x7c>
    a7ac:	e59f0030 	ldr	r0, [pc, #48]	; a7e4 <mmu_init+0x80>
    a7b0:	eb0000ee 	bl	ab70 <printk>
    a7b4:	eb00021d 	bl	b030 <clean_reboot>
    a7b8:	e59f3028 	ldr	r3, [pc, #40]	; a7e8 <mmu_init+0x84>
    a7bc:	e58d3000 	str	r3, [sp]
    a7c0:	e3a03069 	mov	r3, #105, 0	; 0x69
    a7c4:	e59f2010 	ldr	r2, [pc, #16]	; a7dc <mmu_init+0x78>
    a7c8:	e59f1010 	ldr	r1, [pc, #16]	; a7e0 <mmu_init+0x7c>
    a7cc:	e59f0010 	ldr	r0, [pc, #16]	; a7e4 <mmu_init+0x80>
    a7d0:	eb0000e6 	bl	ab70 <printk>
    a7d4:	eb000215 	bl	b030 <clean_reboot>
    a7d8:	0000c4e4 	.word	0x0000c4e4
    a7dc:	0000c54c 	.word	0x0000c54c
    a7e0:	0000c488 	.word	0x0000c488
    a7e4:	0000bd64 	.word	0x0000bd64
    a7e8:	0000c4f0 	.word	0x0000c4f0

0000a7ec <domain_access_ctrl_get>:
    a7ec:	ee130f10 	mrc	15, 0, r0, cr3, cr0, {0}
    a7f0:	e3a03000 	mov	r3, #0, 0
    a7f4:	ee073f95 	mcr	15, 0, r3, cr7, cr5, {4}
    a7f8:	e12fff1e 	bx	lr

0000a7fc <domain_access_ctrl_set>:
    a7fc:	ee030f10 	mcr	15, 0, r0, cr3, cr0, {0}
    a800:	e3a03000 	mov	r3, #0, 0
    a804:	ee073f95 	mcr	15, 0, r3, cr7, cr5, {4}
    a808:	e12fff1e 	bx	lr

0000a80c <get_cache_type>:
    a80c:	e3a0d409 	mov	sp, #150994944	; 0x9000000
    a810:	e24f0004 	sub	r0, pc, #4, 0
    a814:	e28f1000 	add	r1, pc, #0, 0
    a818:	ea0001e7 	b	afbc <asm_not_implemented_helper>
    a81c:	72756f79 	.word	0x72756f79
    a820:	756d6d2d 	.word	0x756d6d2d
    a824:	6d73612d 	.word	0x6d73612d
    a828:	333a532e 	.word	0x333a532e
    a82c:	4e3c3a34 	.word	0x4e3c3a34
    a830:	4920544f 	.word	0x4920544f
    a834:	454c504d 	.word	0x454c504d
    a838:	544e454d 	.word	0x544e454d
    a83c:	003e4445 	.word	0x003e4445
    a840:	e12fff1e 	bx	lr

0000a844 <cp15_ctrl_reg1_rd>:
    a844:	ee110f10 	mrc	15, 0, r0, cr1, cr0, {0}
    a848:	ee071f95 	mcr	15, 0, r1, cr7, cr5, {4}
    a84c:	e12fff1e 	bx	lr

0000a850 <cp15_ctrl_reg1_wr>:
    a850:	e3a01000 	mov	r1, #0, 0
    a854:	ee010f10 	mcr	15, 0, r0, cr1, cr0, {0}
    a858:	ee071f95 	mcr	15, 0, r1, cr7, cr5, {4}
    a85c:	e12fff1e 	bx	lr

0000a860 <mmu_reset>:
    a860:	e3a02000 	mov	r2, #0, 0
    a864:	ee082f17 	mcr	15, 0, r2, cr8, cr7, {0}
    a868:	ee072f16 	mcr	15, 0, r2, cr7, cr6, {0}
    a86c:	ee072f15 	mcr	15, 0, r2, cr7, cr5, {0}
    a870:	ee072f15 	mcr	15, 0, r2, cr7, cr5, {0}
    a874:	ee072f15 	mcr	15, 0, r2, cr7, cr5, {0}
    a878:	ee072f15 	mcr	15, 0, r2, cr7, cr5, {0}
    a87c:	e320f000 	nop	{0}
    a880:	e320f000 	nop	{0}
    a884:	e320f000 	nop	{0}
    a888:	e320f000 	nop	{0}
    a88c:	e320f000 	nop	{0}
    a890:	e320f000 	nop	{0}
    a894:	e320f000 	nop	{0}
    a898:	e320f000 	nop	{0}
    a89c:	e320f000 	nop	{0}
    a8a0:	e320f000 	nop	{0}
    a8a4:	e320f000 	nop	{0}
    a8a8:	ee072f9a 	mcr	15, 0, r2, cr7, cr10, {4}
    a8ac:	ee072f95 	mcr	15, 0, r2, cr7, cr5, {4}
    a8b0:	e12fff1e 	bx	lr

0000a8b4 <cp15_domain_ctrl_wr>:
    a8b4:	e3a02000 	mov	r2, #0, 0
    a8b8:	ee030f10 	mcr	15, 0, r0, cr3, cr0, {0}
    a8bc:	ee072f95 	mcr	15, 0, r2, cr7, cr5, {4}
    a8c0:	e12fff1e 	bx	lr

0000a8c4 <cp15_set_procid_ttbr0>:
    a8c4:	e3a02000 	mov	r2, #0, 0
    a8c8:	ee072f9a 	mcr	15, 0, r2, cr7, cr10, {4}
    a8cc:	ee0d2f30 	mcr	15, 0, r2, cr13, cr0, {1}
    a8d0:	ee072f95 	mcr	15, 0, r2, cr7, cr5, {4}
    a8d4:	ee022f50 	mcr	15, 0, r2, cr2, cr0, {2}
    a8d8:	ee021f10 	mcr	15, 0, r1, cr2, cr0, {0}
    a8dc:	ee022f30 	mcr	15, 0, r2, cr2, cr0, {1}
    a8e0:	ee072f95 	mcr	15, 0, r2, cr7, cr5, {4}
    a8e4:	ee072fd5 	mcr	15, 0, r2, cr7, cr5, {6}
    a8e8:	ee072f95 	mcr	15, 0, r2, cr7, cr5, {4}
    a8ec:	ee0d0f30 	mcr	15, 0, r0, cr13, cr0, {1}
    a8f0:	ee072f95 	mcr	15, 0, r2, cr7, cr5, {4}
    a8f4:	e12fff1e 	bx	lr

0000a8f8 <mmu_disable_set_asm>:
    a8f8:	e3a02000 	mov	r2, #0, 0
    a8fc:	ee072f1e 	mcr	15, 0, r2, cr7, cr14, {0}
    a900:	ee072f9a 	mcr	15, 0, r2, cr7, cr10, {4}
    a904:	ee072f95 	mcr	15, 0, r2, cr7, cr5, {4}
    a908:	ee010f10 	mcr	15, 0, r0, cr1, cr0, {0}
    a90c:	ee072f95 	mcr	15, 0, r2, cr7, cr5, {4}
    a910:	ee072f15 	mcr	15, 0, r2, cr7, cr5, {0}
    a914:	ee072f15 	mcr	15, 0, r2, cr7, cr5, {0}
    a918:	ee072f15 	mcr	15, 0, r2, cr7, cr5, {0}
    a91c:	ee072f15 	mcr	15, 0, r2, cr7, cr5, {0}
    a920:	e320f000 	nop	{0}
    a924:	e320f000 	nop	{0}
    a928:	e320f000 	nop	{0}
    a92c:	e320f000 	nop	{0}
    a930:	e320f000 	nop	{0}
    a934:	e320f000 	nop	{0}
    a938:	e320f000 	nop	{0}
    a93c:	e320f000 	nop	{0}
    a940:	e320f000 	nop	{0}
    a944:	e320f000 	nop	{0}
    a948:	e320f000 	nop	{0}
    a94c:	ee072f9a 	mcr	15, 0, r2, cr7, cr10, {4}
    a950:	ee072fd5 	mcr	15, 0, r2, cr7, cr5, {6}
    a954:	ee072f95 	mcr	15, 0, r2, cr7, cr5, {4}
    a958:	e12fff1e 	bx	lr

0000a95c <mmu_enable_set_asm>:
    a95c:	e3a02000 	mov	r2, #0, 0
    a960:	ee111f10 	mrc	15, 0, r1, cr1, cr0, {0}
    a964:	e3c11a01 	bic	r1, r1, #4096	; 0x1000
    a968:	ee011f10 	mcr	15, 0, r1, cr1, cr0, {0}
    a96c:	ee072f95 	mcr	15, 0, r2, cr7, cr5, {4}
    a970:	ee072f15 	mcr	15, 0, r2, cr7, cr5, {0}
    a974:	ee072f15 	mcr	15, 0, r2, cr7, cr5, {0}
    a978:	ee072f15 	mcr	15, 0, r2, cr7, cr5, {0}
    a97c:	ee072f15 	mcr	15, 0, r2, cr7, cr5, {0}
    a980:	e320f000 	nop	{0}
    a984:	e320f000 	nop	{0}
    a988:	e320f000 	nop	{0}
    a98c:	e320f000 	nop	{0}
    a990:	e320f000 	nop	{0}
    a994:	e320f000 	nop	{0}
    a998:	e320f000 	nop	{0}
    a99c:	e320f000 	nop	{0}
    a9a0:	e320f000 	nop	{0}
    a9a4:	e320f000 	nop	{0}
    a9a8:	e320f000 	nop	{0}
    a9ac:	ee072f9a 	mcr	15, 0, r2, cr7, cr10, {4}
    a9b0:	ee072f95 	mcr	15, 0, r2, cr7, cr5, {4}
    a9b4:	ee010f10 	mcr	15, 0, r0, cr1, cr0, {0}
    a9b8:	ee072f95 	mcr	15, 0, r2, cr7, cr5, {4}
    a9bc:	ee072fd5 	mcr	15, 0, r2, cr7, cr5, {6}
    a9c0:	ee072f95 	mcr	15, 0, r2, cr7, cr5, {4}
    a9c4:	e12fff1e 	bx	lr

0000a9c8 <mmu_sync_pte_mods>:
    a9c8:	e3a02000 	mov	r2, #0, 0
    a9cc:	ee072f1e 	mcr	15, 0, r2, cr7, cr14, {0}
    a9d0:	ee072f15 	mcr	15, 0, r2, cr7, cr5, {0}
    a9d4:	ee072f15 	mcr	15, 0, r2, cr7, cr5, {0}
    a9d8:	ee072f15 	mcr	15, 0, r2, cr7, cr5, {0}
    a9dc:	ee072f15 	mcr	15, 0, r2, cr7, cr5, {0}
    a9e0:	e320f000 	nop	{0}
    a9e4:	e320f000 	nop	{0}
    a9e8:	e320f000 	nop	{0}
    a9ec:	e320f000 	nop	{0}
    a9f0:	e320f000 	nop	{0}
    a9f4:	e320f000 	nop	{0}
    a9f8:	e320f000 	nop	{0}
    a9fc:	e320f000 	nop	{0}
    aa00:	e320f000 	nop	{0}
    aa04:	e320f000 	nop	{0}
    aa08:	e320f000 	nop	{0}
    aa0c:	ee072f9a 	mcr	15, 0, r2, cr7, cr10, {4}
    aa10:	ee082f17 	mcr	15, 0, r2, cr8, cr7, {0}
    aa14:	ee072fd5 	mcr	15, 0, r2, cr7, cr5, {6}
    aa18:	ee072f9a 	mcr	15, 0, r2, cr7, cr10, {4}
    aa1c:	ee072f95 	mcr	15, 0, r2, cr7, cr5, {4}
    aa20:	e12fff1e 	bx	lr

0000aa24 <memcpy>:
    aa24:	e3100007 	tst	r0, #7, 0
    aa28:	1a00000f 	bne	aa6c <memcpy+0x48>
    aa2c:	e3110007 	tst	r1, #7, 0
    aa30:	1a00000d 	bne	aa6c <memcpy+0x48>
    aa34:	e2123007 	ands	r3, r2, #7, 0
    aa38:	1a00000b 	bne	aa6c <memcpy+0x48>
    aa3c:	e1a021a2 	lsr	r2, r2, #3
    aa40:	e1530002 	cmp	r3, r2
    aa44:	212fff1e 	bxcs	lr
    aa48:	e92d0030 	push	{r4, r5}
    aa4c:	e1a0c183 	lsl	ip, r3, #3
    aa50:	e18140dc 	ldrd	r4, [r1, ip]
    aa54:	e18040fc 	strd	r4, [r0, ip]
    aa58:	e2833001 	add	r3, r3, #1, 0
    aa5c:	e1530002 	cmp	r3, r2
    aa60:	3afffff9 	bcc	aa4c <memcpy+0x28>
    aa64:	e8bd0030 	pop	{r4, r5}
    aa68:	e12fff1e 	bx	lr
    aa6c:	e2103003 	ands	r3, r0, #3, 0
    aa70:	1a000011 	bne	aabc <memcpy+0x98>
    aa74:	e211c003 	ands	ip, r1, #3, 0
    aa78:	1a00000c 	bne	aab0 <memcpy+0x8c>
    aa7c:	e2123003 	ands	r3, r2, #3, 0
    aa80:	1a00000f 	bne	aac4 <memcpy+0xa0>
    aa84:	e1a02122 	lsr	r2, r2, #2
    aa88:	ea000002 	b	aa98 <memcpy+0x74>
    aa8c:	e791c103 	ldr	ip, [r1, r3, lsl #2]
    aa90:	e780c103 	str	ip, [r0, r3, lsl #2]
    aa94:	e2833001 	add	r3, r3, #1, 0
    aa98:	e1530002 	cmp	r3, r2
    aa9c:	3afffffa 	bcc	aa8c <memcpy+0x68>
    aaa0:	e12fff1e 	bx	lr
    aaa4:	e7d1c003 	ldrb	ip, [r1, r3]
    aaa8:	e7c0c003 	strb	ip, [r0, r3]
    aaac:	e2833001 	add	r3, r3, #1, 0
    aab0:	e1530002 	cmp	r3, r2
    aab4:	3afffffa 	bcc	aaa4 <memcpy+0x80>
    aab8:	e12fff1e 	bx	lr
    aabc:	e3a03000 	mov	r3, #0, 0
    aac0:	eafffffa 	b	aab0 <memcpy+0x8c>
    aac4:	e1a0300c 	mov	r3, ip
    aac8:	eafffff8 	b	aab0 <memcpy+0x8c>

0000aacc <memcpy_end>:
    aacc:	e12fff1e 	bx	lr

0000aad0 <memset>:
    aad0:	e3520000 	cmp	r2, #0, 0
    aad4:	012fff1e 	bxeq	lr
    aad8:	e3510000 	cmp	r1, #0, 0
    aadc:	1a000007 	bne	ab00 <memset+0x30>
    aae0:	e3100007 	tst	r0, #7, 0
    aae4:	1a000001 	bne	aaf0 <memset+0x20>
    aae8:	e3120007 	tst	r2, #7, 0
    aaec:	0a000011 	beq	ab38 <memset+0x68>
    aaf0:	e3100003 	tst	r0, #3, 0
    aaf4:	1a000001 	bne	ab00 <memset+0x30>
    aaf8:	e3120003 	tst	r2, #3, 0
    aafc:	0a000001 	beq	ab08 <memset+0x38>
    ab00:	e0802002 	add	r2, r0, r2
    ab04:	ea000008 	b	ab2c <memset+0x5c>
    ab08:	e1a02122 	lsr	r2, r2, #2
    ab0c:	ea000001 	b	ab18 <memset+0x48>
    ab10:	e4801004 	str	r1, [r0], #4
    ab14:	e1a02003 	mov	r2, r3
    ab18:	e2423001 	sub	r3, r2, #1, 0
    ab1c:	e3520000 	cmp	r2, #0, 0
    ab20:	1afffffa 	bne	ab10 <memset+0x40>
    ab24:	e12fff1e 	bx	lr
    ab28:	e4c01001 	strb	r1, [r0], #1
    ab2c:	e1500002 	cmp	r0, r2
    ab30:	3afffffc 	bcc	ab28 <memset+0x58>
    ab34:	e12fff1e 	bx	lr
    ab38:	e1a021a2 	lsr	r2, r2, #3
    ab3c:	e2423001 	sub	r3, r2, #1, 0
    ab40:	e3520000 	cmp	r2, #0, 0
    ab44:	012fff1e 	bxeq	lr
    ab48:	e92d0030 	push	{r4, r5}
    ab4c:	e1a04001 	mov	r4, r1
    ab50:	e1a05fc1 	asr	r5, r1, #31
    ab54:	e0c040f8 	strd	r4, [r0], #8
    ab58:	e1a02003 	mov	r2, r3
    ab5c:	e2433001 	sub	r3, r3, #1, 0
    ab60:	e3520000 	cmp	r2, #0, 0
    ab64:	1afffff8 	bne	ab4c <memset+0x7c>
    ab68:	e8bd0030 	pop	{r4, r5}
    ab6c:	e12fff1e 	bx	lr

0000ab70 <printk>:
    ab70:	e92d000f 	push	{r0, r1, r2, r3}
    ab74:	e52de004 	push	{lr}		; (str lr, [sp, #-4]!)
    ab78:	e24dd00c 	sub	sp, sp, #12, 0
    ab7c:	e28d1014 	add	r1, sp, #20, 0
    ab80:	e58d1004 	str	r1, [sp, #4]
    ab84:	e59d0010 	ldr	r0, [sp, #16]
    ab88:	eb000047 	bl	acac <vprintk>
    ab8c:	e28dd00c 	add	sp, sp, #12, 0
    ab90:	e49de004 	pop	{lr}		; (ldr lr, [sp], #4)
    ab94:	e28dd010 	add	sp, sp, #16, 0
    ab98:	e12fff1e 	bx	lr

0000ab9c <emit_val>:
    ab9c:	e92d4010 	push	{r4, lr}
    aba0:	e24dd030 	sub	sp, sp, #48, 0	; 0x30
    aba4:	e350000a 	cmp	r0, #10, 0
    aba8:	0a000014 	beq	ac00 <emit_val+0x64>
    abac:	e3500010 	cmp	r0, #16, 0
    abb0:	0a000022 	beq	ac40 <emit_val+0xa4>
    abb4:	e3500002 	cmp	r0, #2, 0
    abb8:	0a000006 	beq	abd8 <emit_val+0x3c>
    abbc:	e58d0000 	str	r0, [sp]
    abc0:	e3a0301b 	mov	r3, #27, 0
    abc4:	e59f20c0 	ldr	r2, [pc, #192]	; ac8c <emit_val+0xf0>
    abc8:	e59f10c0 	ldr	r1, [pc, #192]	; ac90 <emit_val+0xf4>
    abcc:	e59f00c0 	ldr	r0, [pc, #192]	; ac94 <emit_val+0xf8>
    abd0:	ebffffe6 	bl	ab70 <printk>
    abd4:	eb000115 	bl	b030 <clean_reboot>
    abd8:	e28d400c 	add	r4, sp, #12, 0
    abdc:	e2012001 	and	r2, r1, #1, 0
    abe0:	e59f00b0 	ldr	r0, [pc, #176]	; ac98 <emit_val+0xfc>
    abe4:	e7d02002 	ldrb	r2, [r0, r2]
    abe8:	e5c42000 	strb	r2, [r4]
    abec:	e2844001 	add	r4, r4, #1, 0
    abf0:	e3510001 	cmp	r1, #1, 0
    abf4:	e1a010a1 	lsr	r1, r1, #1
    abf8:	8afffff7 	bhi	abdc <emit_val+0x40>
    abfc:	ea00001d 	b	ac78 <emit_val+0xdc>
    ac00:	e28d400c 	add	r4, sp, #12, 0
    ac04:	e59f3090 	ldr	r3, [pc, #144]	; ac9c <emit_val+0x100>
    ac08:	e0832193 	umull	r2, r3, r3, r1
    ac0c:	e1a031a3 	lsr	r3, r3, #3
    ac10:	e1a00003 	mov	r0, r3
    ac14:	e0833103 	add	r3, r3, r3, lsl #2
    ac18:	e0413083 	sub	r3, r1, r3, lsl #1
    ac1c:	e59fc07c 	ldr	ip, [pc, #124]	; aca0 <emit_val+0x104>
    ac20:	e7dcc003 	ldrb	ip, [ip, r3]
    ac24:	e5c4c000 	strb	ip, [r4]
    ac28:	e2844001 	add	r4, r4, #1, 0
    ac2c:	e1a03001 	mov	r3, r1
    ac30:	e1a01000 	mov	r1, r0
    ac34:	e3530009 	cmp	r3, #9, 0
    ac38:	8afffff1 	bhi	ac04 <emit_val+0x68>
    ac3c:	ea00000d 	b	ac78 <emit_val+0xdc>
    ac40:	e28d400c 	add	r4, sp, #12, 0
    ac44:	e201200f 	and	r2, r1, #15, 0
    ac48:	e59f0054 	ldr	r0, [pc, #84]	; aca4 <emit_val+0x108>
    ac4c:	e7d02002 	ldrb	r2, [r0, r2]
    ac50:	e5c42000 	strb	r2, [r4]
    ac54:	e2844001 	add	r4, r4, #1, 0
    ac58:	e351000f 	cmp	r1, #15, 0
    ac5c:	e1a01221 	lsr	r1, r1, #4
    ac60:	8afffff7 	bhi	ac44 <emit_val+0xa8>
    ac64:	ea000003 	b	ac78 <emit_val+0xdc>
    ac68:	e59f3038 	ldr	r3, [pc, #56]	; aca8 <emit_val+0x10c>
    ac6c:	e5933000 	ldr	r3, [r3]
    ac70:	e5740001 	ldrb	r0, [r4, #-1]!
    ac74:	e12fff33 	blx	r3
    ac78:	e28d300c 	add	r3, sp, #12, 0
    ac7c:	e1540003 	cmp	r4, r3
    ac80:	8afffff8 	bhi	ac68 <emit_val+0xcc>
    ac84:	e28dd030 	add	sp, sp, #48, 0	; 0x30
    ac88:	e8bd8010 	pop	{r4, pc}
    ac8c:	0000c610 	.word	0x0000c610
    ac90:	0000c558 	.word	0x0000c558
    ac94:	0000c568 	.word	0x0000c568
    ac98:	0000c58c 	.word	0x0000c58c
    ac9c:	cccccccd 	.word	0xcccccccd
    aca0:	0000c590 	.word	0x0000c590
    aca4:	0000c59c 	.word	0x0000c59c
    aca8:	0000ce6c 	.word	0x0000ce6c

0000acac <vprintk>:
    acac:	e92d4030 	push	{r4, r5, lr}
    acb0:	e24dd014 	sub	sp, sp, #20, 0
    acb4:	e1a04000 	mov	r4, r0
    acb8:	e58d100c 	str	r1, [sp, #12]
    acbc:	ea000003 	b	acd0 <vprintk+0x24>
    acc0:	e59f3288 	ldr	r3, [pc, #648]	; af50 <vprintk+0x2a4>
    acc4:	e5933000 	ldr	r3, [r3]
    acc8:	e12fff33 	blx	r3
    accc:	e2844001 	add	r4, r4, #1, 0
    acd0:	e5d40000 	ldrb	r0, [r4]
    acd4:	e3500000 	cmp	r0, #0, 0
    acd8:	0a00009a 	beq	af48 <vprintk+0x29c>
    acdc:	e3500025 	cmp	r0, #37, 0	; 0x25
    ace0:	1afffff6 	bne	acc0 <vprintk+0x14>
    ace4:	e2845001 	add	r5, r4, #1, 0
    ace8:	e5d42001 	ldrb	r2, [r4, #1]
    acec:	e2423062 	sub	r3, r2, #98, 0	; 0x62
    acf0:	e3530016 	cmp	r3, #22, 0
    acf4:	979ff103 	ldrls	pc, [pc, r3, lsl #2]
    acf8:	ea00008b 	b	af2c <vprintk+0x280>
    acfc:	0000ad58 	.word	0x0000ad58
    ad00:	0000ad98 	.word	0x0000ad98
    ad04:	0000aeb0 	.word	0x0000aeb0
    ad08:	0000af2c 	.word	0x0000af2c
    ad0c:	0000af2c 	.word	0x0000af2c
    ad10:	0000af2c 	.word	0x0000af2c
    ad14:	0000af2c 	.word	0x0000af2c
    ad18:	0000af2c 	.word	0x0000af2c
    ad1c:	0000af2c 	.word	0x0000af2c
    ad20:	0000af2c 	.word	0x0000af2c
    ad24:	0000adbc 	.word	0x0000adbc
    ad28:	0000af2c 	.word	0x0000af2c
    ad2c:	0000af2c 	.word	0x0000af2c
    ad30:	0000af2c 	.word	0x0000af2c
    ad34:	0000ae74 	.word	0x0000ae74
    ad38:	0000af2c 	.word	0x0000af2c
    ad3c:	0000af2c 	.word	0x0000af2c
    ad40:	0000aef4 	.word	0x0000aef4
    ad44:	0000af2c 	.word	0x0000af2c
    ad48:	0000ad78 	.word	0x0000ad78
    ad4c:	0000af2c 	.word	0x0000af2c
    ad50:	0000af2c 	.word	0x0000af2c
    ad54:	0000ae74 	.word	0x0000ae74
    ad58:	e59d300c 	ldr	r3, [sp, #12]
    ad5c:	e2832004 	add	r2, r3, #4, 0
    ad60:	e58d200c 	str	r2, [sp, #12]
    ad64:	e5931000 	ldr	r1, [r3]
    ad68:	e3a00002 	mov	r0, #2, 0
    ad6c:	ebffff8a 	bl	ab9c <emit_val>
    ad70:	e1a04005 	mov	r4, r5
    ad74:	eaffffd4 	b	accc <vprintk+0x20>
    ad78:	e59d300c 	ldr	r3, [sp, #12]
    ad7c:	e2832004 	add	r2, r3, #4, 0
    ad80:	e58d200c 	str	r2, [sp, #12]
    ad84:	e5931000 	ldr	r1, [r3]
    ad88:	e3a0000a 	mov	r0, #10, 0
    ad8c:	ebffff82 	bl	ab9c <emit_val>
    ad90:	e1a04005 	mov	r4, r5
    ad94:	eaffffcc 	b	accc <vprintk+0x20>
    ad98:	e59f31b0 	ldr	r3, [pc, #432]	; af50 <vprintk+0x2a4>
    ad9c:	e5932000 	ldr	r2, [r3]
    ada0:	e59d300c 	ldr	r3, [sp, #12]
    ada4:	e2831004 	add	r1, r3, #4, 0
    ada8:	e58d100c 	str	r1, [sp, #12]
    adac:	e5930000 	ldr	r0, [r3]
    adb0:	e12fff32 	blx	r2
    adb4:	e1a04005 	mov	r4, r5
    adb8:	eaffffc3 	b	accc <vprintk+0x20>
    adbc:	e2842002 	add	r2, r4, #2, 0
    adc0:	e5d43002 	ldrb	r3, [r4, #2]
    adc4:	e353006c 	cmp	r3, #108, 0	; 0x6c
    adc8:	1a000018 	bne	ae30 <vprintk+0x184>
    adcc:	e2845003 	add	r5, r4, #3, 0
    add0:	e5d43003 	ldrb	r3, [r4, #3]
    add4:	e3530078 	cmp	r3, #120, 0	; 0x78
    add8:	1a00001b 	bne	ae4c <vprintk+0x1a0>
    addc:	e59f416c 	ldr	r4, [pc, #364]	; af50 <vprintk+0x2a4>
    ade0:	e5943000 	ldr	r3, [r4]
    ade4:	e3a00030 	mov	r0, #48, 0	; 0x30
    ade8:	e12fff33 	blx	r3
    adec:	e5943000 	ldr	r3, [r4]
    adf0:	e3a00078 	mov	r0, #120, 0	; 0x78
    adf4:	e12fff33 	blx	r3
    adf8:	e59d300c 	ldr	r3, [sp, #12]
    adfc:	e2833007 	add	r3, r3, #7, 0
    ae00:	e3c33007 	bic	r3, r3, #7, 0
    ae04:	e2832008 	add	r2, r3, #8, 0
    ae08:	e58d200c 	str	r2, [sp, #12]
    ae0c:	e5934000 	ldr	r4, [r3]
    ae10:	e5931004 	ldr	r1, [r3, #4]
    ae14:	e3510000 	cmp	r1, #0, 0
    ae18:	1a000012 	bne	ae68 <vprintk+0x1bc>
    ae1c:	e1a01004 	mov	r1, r4
    ae20:	e3a00010 	mov	r0, #16, 0
    ae24:	ebffff5c 	bl	ab9c <emit_val>
    ae28:	e1a04005 	mov	r4, r5
    ae2c:	eaffffa6 	b	accc <vprintk+0x20>
    ae30:	e58d2000 	str	r2, [sp]
    ae34:	e3a0303b 	mov	r3, #59, 0	; 0x3b
    ae38:	e59f2114 	ldr	r2, [pc, #276]	; af54 <vprintk+0x2a8>
    ae3c:	e59f1114 	ldr	r1, [pc, #276]	; af58 <vprintk+0x2ac>
    ae40:	e59f0114 	ldr	r0, [pc, #276]	; af5c <vprintk+0x2b0>
    ae44:	ebffff49 	bl	ab70 <printk>
    ae48:	eb000078 	bl	b030 <clean_reboot>
    ae4c:	e58d5000 	str	r5, [sp]
    ae50:	e3a0303e 	mov	r3, #62, 0	; 0x3e
    ae54:	e59f20f8 	ldr	r2, [pc, #248]	; af54 <vprintk+0x2a8>
    ae58:	e59f10f8 	ldr	r1, [pc, #248]	; af58 <vprintk+0x2ac>
    ae5c:	e59f00f8 	ldr	r0, [pc, #248]	; af5c <vprintk+0x2b0>
    ae60:	ebffff42 	bl	ab70 <printk>
    ae64:	eb000071 	bl	b030 <clean_reboot>
    ae68:	e3a00010 	mov	r0, #16, 0
    ae6c:	ebffff4a 	bl	ab9c <emit_val>
    ae70:	eaffffe9 	b	ae1c <vprintk+0x170>
    ae74:	e59f40d4 	ldr	r4, [pc, #212]	; af50 <vprintk+0x2a4>
    ae78:	e5943000 	ldr	r3, [r4]
    ae7c:	e3a00030 	mov	r0, #48, 0	; 0x30
    ae80:	e12fff33 	blx	r3
    ae84:	e5943000 	ldr	r3, [r4]
    ae88:	e3a00078 	mov	r0, #120, 0	; 0x78
    ae8c:	e12fff33 	blx	r3
    ae90:	e59d300c 	ldr	r3, [sp, #12]
    ae94:	e2832004 	add	r2, r3, #4, 0
    ae98:	e58d200c 	str	r2, [sp, #12]
    ae9c:	e5931000 	ldr	r1, [r3]
    aea0:	e3a00010 	mov	r0, #16, 0
    aea4:	ebffff3c 	bl	ab9c <emit_val>
    aea8:	e1a04005 	mov	r4, r5
    aeac:	eaffff86 	b	accc <vprintk+0x20>
    aeb0:	e59d300c 	ldr	r3, [sp, #12]
    aeb4:	e2832004 	add	r2, r3, #4, 0
    aeb8:	e58d200c 	str	r2, [sp, #12]
    aebc:	e5934000 	ldr	r4, [r3]
    aec0:	e3540000 	cmp	r4, #0, 0
    aec4:	ba000004 	blt	aedc <vprintk+0x230>
    aec8:	e1a01004 	mov	r1, r4
    aecc:	e3a0000a 	mov	r0, #10, 0
    aed0:	ebffff31 	bl	ab9c <emit_val>
    aed4:	e1a04005 	mov	r4, r5
    aed8:	eaffff7b 	b	accc <vprintk+0x20>
    aedc:	e59f306c 	ldr	r3, [pc, #108]	; af50 <vprintk+0x2a4>
    aee0:	e5933000 	ldr	r3, [r3]
    aee4:	e3a0002d 	mov	r0, #45, 0	; 0x2d
    aee8:	e12fff33 	blx	r3
    aeec:	e2644000 	rsb	r4, r4, #0, 0
    aef0:	eafffff4 	b	aec8 <vprintk+0x21c>
    aef4:	e59d300c 	ldr	r3, [sp, #12]
    aef8:	e2832004 	add	r2, r3, #4, 0
    aefc:	e58d200c 	str	r2, [sp, #12]
    af00:	e5934000 	ldr	r4, [r3]
    af04:	e5d40000 	ldrb	r0, [r4]
    af08:	e3500000 	cmp	r0, #0, 0
    af0c:	0a000004 	beq	af24 <vprintk+0x278>
    af10:	e59f3038 	ldr	r3, [pc, #56]	; af50 <vprintk+0x2a4>
    af14:	e5933000 	ldr	r3, [r3]
    af18:	e12fff33 	blx	r3
    af1c:	e2844001 	add	r4, r4, #1, 0
    af20:	eafffff7 	b	af04 <vprintk+0x258>
    af24:	e1a04005 	mov	r4, r5
    af28:	eaffff67 	b	accc <vprintk+0x20>
    af2c:	e58d2000 	str	r2, [sp]
    af30:	e3a03062 	mov	r3, #98, 0	; 0x62
    af34:	e59f2018 	ldr	r2, [pc, #24]	; af54 <vprintk+0x2a8>
    af38:	e59f1018 	ldr	r1, [pc, #24]	; af58 <vprintk+0x2ac>
    af3c:	e59f001c 	ldr	r0, [pc, #28]	; af60 <vprintk+0x2b4>
    af40:	ebffff0a 	bl	ab70 <printk>
    af44:	eb000039 	bl	b030 <clean_reboot>
    af48:	e28dd014 	add	sp, sp, #20, 0
    af4c:	e8bd8030 	pop	{r4, r5, pc}
    af50:	0000ce6c 	.word	0x0000ce6c
    af54:	0000c61c 	.word	0x0000c61c
    af58:	0000c558 	.word	0x0000c558
    af5c:	0000c5b0 	.word	0x0000c5b0
    af60:	0000c5e8 	.word	0x0000c5e8

0000af64 <default_putchar>:
    af64:	e92d4010 	push	{r4, lr}
    af68:	e1a04000 	mov	r4, r0
    af6c:	e6ef0070 	uxtb	r0, r0
    af70:	eb0001a5 	bl	b60c <uart_put8>
    af74:	e1a00004 	mov	r0, r4
    af78:	e8bd8010 	pop	{r4, pc}

0000af7c <rpi_putchar_set>:
    af7c:	e59f300c 	ldr	r3, [pc, #12]	; af90 <rpi_putchar_set+0x14>
    af80:	e5932000 	ldr	r2, [r3]
    af84:	e5830000 	str	r0, [r3]
    af88:	e1a00002 	mov	r0, r2
    af8c:	e12fff1e 	bx	lr
    af90:	0000ce6c 	.word	0x0000ce6c

0000af94 <asm_not_reached_helper>:
    af94:	e92d4010 	push	{r4, lr}
    af98:	e1a04000 	mov	r4, r0
    af9c:	e59f0010 	ldr	r0, [pc, #16]	; afb4 <asm_not_reached_helper+0x20>
    afa0:	ebfffef2 	bl	ab70 <printk>
    afa4:	e1a01004 	mov	r1, r4
    afa8:	e59f0008 	ldr	r0, [pc, #8]	; afb8 <asm_not_reached_helper+0x24>
    afac:	ebfffeef 	bl	ab70 <printk>
    afb0:	eb00001e 	bl	b030 <clean_reboot>
    afb4:	0000c624 	.word	0x0000c624
    afb8:	0000c658 	.word	0x0000c658

0000afbc <asm_not_implemented_helper>:
    afbc:	e92d4010 	push	{r4, lr}
    afc0:	e1a04000 	mov	r4, r0
    afc4:	e59f0010 	ldr	r0, [pc, #16]	; afdc <asm_not_implemented_helper+0x20>
    afc8:	ebfffee8 	bl	ab70 <printk>
    afcc:	e1a01004 	mov	r1, r4
    afd0:	e59f0008 	ldr	r0, [pc, #8]	; afe0 <asm_not_implemented_helper+0x24>
    afd4:	ebfffee5 	bl	ab70 <printk>
    afd8:	eb000014 	bl	b030 <clean_reboot>
    afdc:	0000c68c 	.word	0x0000c68c
    afe0:	0000c658 	.word	0x0000c658

0000afe4 <asm_todo_helper>:
    afe4:	e92d4010 	push	{r4, lr}
    afe8:	e1a04001 	mov	r4, r1
    afec:	e59f0018 	ldr	r0, [pc, #24]	; b00c <asm_todo_helper+0x28>
    aff0:	ebfffede 	bl	ab70 <printk>
    aff4:	e59f0014 	ldr	r0, [pc, #20]	; b010 <asm_todo_helper+0x2c>
    aff8:	ebfffedc 	bl	ab70 <printk>
    affc:	e1a01004 	mov	r1, r4
    b000:	e59f000c 	ldr	r0, [pc, #12]	; b014 <asm_todo_helper+0x30>
    b004:	ebfffed9 	bl	ab70 <printk>
    b008:	eb000008 	bl	b030 <clean_reboot>
    b00c:	0000c6b8 	.word	0x0000c6b8
    b010:	0000c6f0 	.word	0x0000c6f0
    b014:	0000c724 	.word	0x0000c724

0000b018 <asm_bad_exception_helper>:
    b018:	e92d4010 	push	{r4, lr}
    b01c:	e1a02000 	mov	r2, r0
    b020:	e59f0004 	ldr	r0, [pc, #4]	; b02c <asm_bad_exception_helper+0x14>
    b024:	ebfffed1 	bl	ab70 <printk>
    b028:	eb000000 	bl	b030 <clean_reboot>
    b02c:	0000c72c 	.word	0x0000c72c

0000b030 <clean_reboot>:
    b030:	e92d4010 	push	{r4, lr}
    b034:	e59f0010 	ldr	r0, [pc, #16]	; b04c <clean_reboot+0x1c>
    b038:	eb0002e7 	bl	bbdc <putk>
    b03c:	eb00018d 	bl	b678 <uart_flush_tx>
    b040:	e3a0000a 	mov	r0, #10, 0
    b044:	eb000108 	bl	b46c <delay_ms>
    b048:	eb0000c4 	bl	b360 <rpi_reboot>
    b04c:	0000c74c 	.word	0x0000c74c

0000b050 <_cstart>:
    b050:	e52de004 	push	{lr}		; (str lr, [sp, #-4]!)
    b054:	e24dd014 	sub	sp, sp, #20, 0
    b058:	eb000027 	bl	b0fc <custom_loader>
    b05c:	e59f3084 	ldr	r3, [pc, #132]	; b0e8 <_cstart+0x98>
    b060:	ea000001 	b	b06c <_cstart+0x1c>
    b064:	e3a02000 	mov	r2, #0, 0
    b068:	e4832004 	str	r2, [r3], #4
    b06c:	e59f2078 	ldr	r2, [pc, #120]	; b0ec <_cstart+0x9c>
    b070:	e1530002 	cmp	r3, r2
    b074:	3afffffa 	bcc	b064 <_cstart+0x14>
    b078:	e3a02a01 	mov	r2, #4096	; 0x1000
    b07c:	e3a01000 	mov	r1, #0, 0
    b080:	e1a00001 	mov	r0, r1
    b084:	ebfffe91 	bl	aad0 <memset>
    b088:	e3a03000 	mov	r3, #0, 0
    b08c:	e3530b01 	cmp	r3, #1024	; 0x400
    b090:	2a00000f 	bcs	b0d4 <_cstart+0x84>
    b094:	e1a02103 	lsl	r2, r3, #2
    b098:	e5921000 	ldr	r1, [r2]
    b09c:	e3510000 	cmp	r1, #0, 0
    b0a0:	02833001 	addeq	r3, r3, #1, 0
    b0a4:	0afffff8 	beq	b08c <_cstart+0x3c>
    b0a8:	e5923000 	ldr	r3, [r2]
    b0ac:	e3a01001 	mov	r1, #1, 0
    b0b0:	e58d1008 	str	r1, [sp, #8]
    b0b4:	e58d3004 	str	r3, [sp, #4]
    b0b8:	e58d2000 	str	r2, [sp]
    b0bc:	e3a03012 	mov	r3, #18, 0
    b0c0:	e59f2028 	ldr	r2, [pc, #40]	; b0f0 <_cstart+0xa0>
    b0c4:	e59f1028 	ldr	r1, [pc, #40]	; b0f4 <_cstart+0xa4>
    b0c8:	e59f0028 	ldr	r0, [pc, #40]	; b0f8 <_cstart+0xa8>
    b0cc:	ebfffea7 	bl	ab70 <printk>
    b0d0:	ebffffd6 	bl	b030 <clean_reboot>
    b0d4:	eb000100 	bl	b4dc <uart_init>
    b0d8:	e3a03001 	mov	r3, #1, 0
    b0dc:	ee0f3f1c 	mcr	15, 0, r3, cr15, cr12, {0}
    b0e0:	ebfff437 	bl	81c4 <notmain>
    b0e4:	ebffffd1 	bl	b030 <clean_reboot>
    b0e8:	0000ce7c 	.word	0x0000ce7c
    b0ec:	0000cf00 	.word	0x0000cf00
    b0f0:	0000c7d8 	.word	0x0000c7d8
    b0f4:	0000c758 	.word	0x0000c758
    b0f8:	0000c79c 	.word	0x0000c79c

0000b0fc <custom_loader>:
    b0fc:	e12fff1e 	bx	lr

0000b100 <data_abort_vector>:
    b100:	e52de004 	push	{lr}		; (str lr, [sp, #-4]!)
    b104:	e24dd00c 	sub	sp, sp, #12, 0
    b108:	e58d0004 	str	r0, [sp, #4]
    b10c:	e59f3018 	ldr	r3, [pc, #24]	; b12c <data_abort_vector+0x2c>
    b110:	e58d3000 	str	r3, [sp]
    b114:	e3a03002 	mov	r3, #2, 0
    b118:	e59f2010 	ldr	r2, [pc, #16]	; b130 <data_abort_vector+0x30>
    b11c:	e59f1010 	ldr	r1, [pc, #16]	; b134 <data_abort_vector+0x34>
    b120:	e59f0010 	ldr	r0, [pc, #16]	; b138 <data_abort_vector+0x38>
    b124:	ebfffe91 	bl	ab70 <printk>
    b128:	ebffffc0 	bl	b030 <clean_reboot>
    b12c:	0000c868 	.word	0x0000c868
    b130:	0000c874 	.word	0x0000c874
    b134:	0000c7e8 	.word	0x0000c7e8
    b138:	0000c814 	.word	0x0000c814

0000b13c <fast_interrupt_vector>:
    b13c:	e52de004 	push	{lr}		; (str lr, [sp, #-4]!)
    b140:	e24dd00c 	sub	sp, sp, #12, 0
    b144:	e58d0004 	str	r0, [sp, #4]
    b148:	e59f3018 	ldr	r3, [pc, #24]	; b168 <fast_interrupt_vector+0x2c>
    b14c:	e58d3000 	str	r3, [sp]
    b150:	e3a03002 	mov	r3, #2, 0
    b154:	e59f2010 	ldr	r2, [pc, #16]	; b16c <fast_interrupt_vector+0x30>
    b158:	e59f1010 	ldr	r1, [pc, #16]	; b170 <fast_interrupt_vector+0x34>
    b15c:	e59f0010 	ldr	r0, [pc, #16]	; b174 <fast_interrupt_vector+0x38>
    b160:	ebfffe82 	bl	ab70 <printk>
    b164:	ebffffb1 	bl	b030 <clean_reboot>
    b168:	0000c8ac 	.word	0x0000c8ac
    b16c:	0000c8b4 	.word	0x0000c8b4
    b170:	0000c888 	.word	0x0000c888
    b174:	0000c814 	.word	0x0000c814

0000b178 <fiq_vector>:
    b178:	e52de004 	push	{lr}		; (str lr, [sp, #-4]!)
    b17c:	e24dd00c 	sub	sp, sp, #12, 0
    b180:	e58d0004 	str	r0, [sp, #4]
    b184:	e59f3018 	ldr	r3, [pc, #24]	; b1a4 <fiq_vector+0x2c>
    b188:	e58d3000 	str	r3, [sp]
    b18c:	e3a03003 	mov	r3, #3, 0
    b190:	e59f2010 	ldr	r2, [pc, #16]	; b1a8 <fiq_vector+0x30>
    b194:	e59f1010 	ldr	r1, [pc, #16]	; b1ac <fiq_vector+0x34>
    b198:	e59f0010 	ldr	r0, [pc, #16]	; b1b0 <fiq_vector+0x38>
    b19c:	ebfffe73 	bl	ab70 <printk>
    b1a0:	ebffffa2 	bl	b030 <clean_reboot>
    b1a4:	0000c8ac 	.word	0x0000c8ac
    b1a8:	0000c8cc 	.word	0x0000c8cc
    b1ac:	0000c888 	.word	0x0000c888
    b1b0:	0000c814 	.word	0x0000c814

0000b1b4 <int_vector>:
    b1b4:	e52de004 	push	{lr}		; (str lr, [sp, #-4]!)
    b1b8:	e24dd00c 	sub	sp, sp, #12, 0
    b1bc:	e58d0004 	str	r0, [sp, #4]
    b1c0:	e59f3018 	ldr	r3, [pc, #24]	; b1e0 <int_vector+0x2c>
    b1c4:	e58d3000 	str	r3, [sp]
    b1c8:	e3a03003 	mov	r3, #3, 0
    b1cc:	e59f2010 	ldr	r2, [pc, #16]	; b1e4 <int_vector+0x30>
    b1d0:	e59f1010 	ldr	r1, [pc, #16]	; b1e8 <int_vector+0x34>
    b1d4:	e59f0010 	ldr	r0, [pc, #16]	; b1ec <int_vector+0x38>
    b1d8:	ebfffe64 	bl	ab70 <printk>
    b1dc:	ebffff93 	bl	b030 <clean_reboot>
    b1e0:	0000c8fc 	.word	0x0000c8fc
    b1e4:	0000c908 	.word	0x0000c908
    b1e8:	0000c8d8 	.word	0x0000c8d8
    b1ec:	0000c814 	.word	0x0000c814

0000b1f0 <interrupt_vector>:
    b1f0:	e52de004 	push	{lr}		; (str lr, [sp, #-4]!)
    b1f4:	e24dd00c 	sub	sp, sp, #12, 0
    b1f8:	e58d0004 	str	r0, [sp, #4]
    b1fc:	e59f3018 	ldr	r3, [pc, #24]	; b21c <interrupt_vector+0x2c>
    b200:	e58d3000 	str	r3, [sp]
    b204:	e3a03003 	mov	r3, #3, 0
    b208:	e59f2010 	ldr	r2, [pc, #16]	; b220 <interrupt_vector+0x30>
    b20c:	e59f1010 	ldr	r1, [pc, #16]	; b224 <interrupt_vector+0x34>
    b210:	e59f0010 	ldr	r0, [pc, #16]	; b228 <interrupt_vector+0x38>
    b214:	ebfffe55 	bl	ab70 <printk>
    b218:	ebffff84 	bl	b030 <clean_reboot>
    b21c:	0000c8fc 	.word	0x0000c8fc
    b220:	0000c93c 	.word	0x0000c93c
    b224:	0000c914 	.word	0x0000c914
    b228:	0000c814 	.word	0x0000c814

0000b22c <prefetch_abort_vector>:
    b22c:	e52de004 	push	{lr}		; (str lr, [sp, #-4]!)
    b230:	e24dd00c 	sub	sp, sp, #12, 0
    b234:	e58d0004 	str	r0, [sp, #4]
    b238:	e59f3018 	ldr	r3, [pc, #24]	; b258 <prefetch_abort_vector+0x2c>
    b23c:	e58d3000 	str	r3, [sp]
    b240:	e3a03002 	mov	r3, #2, 0
    b244:	e59f2010 	ldr	r2, [pc, #16]	; b25c <prefetch_abort_vector+0x30>
    b248:	e59f1010 	ldr	r1, [pc, #16]	; b260 <prefetch_abort_vector+0x34>
    b24c:	e59f0010 	ldr	r0, [pc, #16]	; b264 <prefetch_abort_vector+0x38>
    b250:	ebfffe46 	bl	ab70 <printk>
    b254:	ebffff75 	bl	b030 <clean_reboot>
    b258:	0000c978 	.word	0x0000c978
    b25c:	0000c988 	.word	0x0000c988
    b260:	0000c950 	.word	0x0000c950
    b264:	0000c814 	.word	0x0000c814

0000b268 <reset_vector>:
    b268:	e52de004 	push	{lr}		; (str lr, [sp, #-4]!)
    b26c:	e24dd00c 	sub	sp, sp, #12, 0
    b270:	e58d0004 	str	r0, [sp, #4]
    b274:	e59f3018 	ldr	r3, [pc, #24]	; b294 <reset_vector+0x2c>
    b278:	e58d3000 	str	r3, [sp]
    b27c:	e3a03002 	mov	r3, #2, 0
    b280:	e59f2010 	ldr	r2, [pc, #16]	; b298 <reset_vector+0x30>
    b284:	e59f1010 	ldr	r1, [pc, #16]	; b29c <reset_vector+0x34>
    b288:	e59f0010 	ldr	r0, [pc, #16]	; b2a0 <reset_vector+0x38>
    b28c:	ebfffe37 	bl	ab70 <printk>
    b290:	ebffff66 	bl	b030 <clean_reboot>
    b294:	0000c9c4 	.word	0x0000c9c4
    b298:	0000c9cc 	.word	0x0000c9cc
    b29c:	0000c9a0 	.word	0x0000c9a0
    b2a0:	0000c814 	.word	0x0000c814

0000b2a4 <syscall_vector>:
    b2a4:	e52de004 	push	{lr}		; (str lr, [sp, #-4]!)
    b2a8:	e24dd00c 	sub	sp, sp, #12, 0
    b2ac:	e58d0004 	str	r0, [sp, #4]
    b2b0:	e59f3018 	ldr	r3, [pc, #24]	; b2d0 <syscall_vector+0x2c>
    b2b4:	e58d3000 	str	r3, [sp]
    b2b8:	e3a03003 	mov	r3, #3, 0
    b2bc:	e59f2010 	ldr	r2, [pc, #16]	; b2d4 <syscall_vector+0x30>
    b2c0:	e59f1010 	ldr	r1, [pc, #16]	; b2d8 <syscall_vector+0x34>
    b2c4:	e59f0010 	ldr	r0, [pc, #16]	; b2dc <syscall_vector+0x38>
    b2c8:	ebfffe28 	bl	ab70 <printk>
    b2cc:	ebffff57 	bl	b030 <clean_reboot>
    b2d0:	0000ca00 	.word	0x0000ca00
    b2d4:	0000ca04 	.word	0x0000ca04
    b2d8:	0000c9dc 	.word	0x0000c9dc
    b2dc:	0000c814 	.word	0x0000c814

0000b2e0 <undefined_instruction_vector>:
    b2e0:	e52de004 	push	{lr}		; (str lr, [sp, #-4]!)
    b2e4:	e24dd00c 	sub	sp, sp, #12, 0
    b2e8:	e58d0004 	str	r0, [sp, #4]
    b2ec:	e59f3018 	ldr	r3, [pc, #24]	; b30c <undefined_instruction_vector+0x2c>
    b2f0:	e58d3000 	str	r3, [sp]
    b2f4:	e3a03002 	mov	r3, #2, 0
    b2f8:	e59f2010 	ldr	r2, [pc, #16]	; b310 <undefined_instruction_vector+0x30>
    b2fc:	e59f1010 	ldr	r1, [pc, #16]	; b314 <undefined_instruction_vector+0x34>
    b300:	e59f0010 	ldr	r0, [pc, #16]	; b318 <undefined_instruction_vector+0x38>
    b304:	ebfffe19 	bl	ab70 <printk>
    b308:	ebffff48 	bl	b030 <clean_reboot>
    b30c:	0000ca44 	.word	0x0000ca44
    b310:	0000ca5c 	.word	0x0000ca5c
    b314:	0000ca14 	.word	0x0000ca14
    b318:	0000c814 	.word	0x0000c814

0000b31c <dev_barrier>:
    b31c:	ea000002 	b	b32c <dsb>

0000b320 <dmb>:
    b320:	e3a00000 	mov	r0, #0, 0
    b324:	ee070fba 	mcr	15, 0, r0, cr7, cr10, {5}
    b328:	e12fff1e 	bx	lr

0000b32c <dsb>:
    b32c:	ee070f9a 	mcr	15, 0, r0, cr7, cr10, {4}
    b330:	e12fff1e 	bx	lr

0000b334 <at_user_level>:
    b334:	e10f0000 	mrs	r0, CPSR
    b338:	e200001f 	and	r0, r0, #31, 0
    b33c:	e3500010 	cmp	r0, #16, 0
    b340:	13a00000 	movne	r0, #0, 0
    b344:	03a00001 	moveq	r0, #1, 0
    b348:	e12fff1e 	bx	lr

0000b34c <set_user_level>:
    b34c:	e10f3000 	mrs	r3, CPSR
    b350:	e3c3301f 	bic	r3, r3, #31, 0
    b354:	e3833010 	orr	r3, r3, #16, 0
    b358:	e129f003 	msr	CPSR_fc, r3
    b35c:	e12fff1e 	bx	lr

0000b360 <rpi_reboot>:
    b360:	e92d4010 	push	{r4, lr}
    b364:	ebfffff2 	bl	b334 <at_user_level>
    b368:	e3500000 	cmp	r0, #0, 0
    b36c:	1a00000a 	bne	b39c <rpi_reboot+0x3c>
    b370:	eb000226 	bl	bc10 <reboot_callout>
    b374:	eb0000bf 	bl	b678 <uart_flush_tx>
    b378:	e3a0000a 	mov	r0, #10, 0
    b37c:	eb00003a 	bl	b46c <delay_ms>
    b380:	e59f101c 	ldr	r1, [pc, #28]	; b3a4 <rpi_reboot+0x44>
    b384:	e59f001c 	ldr	r0, [pc, #28]	; b3a8 <rpi_reboot+0x48>
    b388:	ebfff325 	bl	8024 <PUT32>
    b38c:	e59f1018 	ldr	r1, [pc, #24]	; b3ac <rpi_reboot+0x4c>
    b390:	e59f0018 	ldr	r0, [pc, #24]	; b3b0 <rpi_reboot+0x50>
    b394:	ebfff322 	bl	8024 <PUT32>
    b398:	eafffffe 	b	b398 <rpi_reboot+0x38>
    b39c:	ebffffea 	bl	b34c <set_user_level>
    b3a0:	eafffff2 	b	b370 <rpi_reboot+0x10>
    b3a4:	5a000001 	.word	0x5a000001
    b3a8:	20100024 	.word	0x20100024
    b3ac:	5a000020 	.word	0x5a000020
    b3b0:	2010001c 	.word	0x2010001c

0000b3b4 <timer_check_offsets>:
    b3b4:	e52de004 	push	{lr}		; (str lr, [sp, #-4]!)
    b3b8:	e24dd01c 	sub	sp, sp, #28, 0
    b3bc:	e59f0008 	ldr	r0, [pc, #8]	; b3cc <timer_check_offsets+0x18>
    b3c0:	ebfffdea 	bl	ab70 <printk>
    b3c4:	e28dd01c 	add	sp, sp, #28, 0
    b3c8:	e49df004 	pop	{pc}		; (ldr pc, [sp], #4)
    b3cc:	0000cc14 	.word	0x0000cc14

0000b3d0 <timer_interrupt_init>:
    b3d0:	e92d4010 	push	{r4, lr}
    b3d4:	e1a04000 	mov	r4, r0
    b3d8:	ebfffff5 	bl	b3b4 <timer_check_offsets>
    b3dc:	ebffffce 	bl	b31c <dev_barrier>
    b3e0:	e3a01001 	mov	r1, #1, 0
    b3e4:	e59f0020 	ldr	r0, [pc, #32]	; b40c <timer_interrupt_init+0x3c>
    b3e8:	ebfff30d 	bl	8024 <PUT32>
    b3ec:	ebffffca 	bl	b31c <dev_barrier>
    b3f0:	e1a01004 	mov	r1, r4
    b3f4:	e59f0014 	ldr	r0, [pc, #20]	; b410 <timer_interrupt_init+0x40>
    b3f8:	ebfff309 	bl	8024 <PUT32>
    b3fc:	e3a010a2 	mov	r1, #162, 0	; 0xa2
    b400:	e59f000c 	ldr	r0, [pc, #12]	; b414 <timer_interrupt_init+0x44>
    b404:	ebfff306 	bl	8024 <PUT32>
    b408:	e8bd8010 	pop	{r4, pc}
    b40c:	2000b218 	.word	0x2000b218
    b410:	2000b400 	.word	0x2000b400
    b414:	2000b408 	.word	0x2000b408

0000b418 <timer_get_usec_raw>:
    b418:	e92d4010 	push	{r4, lr}
    b41c:	e59f0004 	ldr	r0, [pc, #4]	; b428 <timer_get_usec_raw+0x10>
    b420:	ebfff301 	bl	802c <GET32>
    b424:	e8bd8010 	pop	{r4, pc}
    b428:	20003004 	.word	0x20003004

0000b42c <timer_get_usec>:
    b42c:	e92d4010 	push	{r4, lr}
    b430:	ebffffb9 	bl	b31c <dev_barrier>
    b434:	ebfffff7 	bl	b418 <timer_get_usec_raw>
    b438:	e1a04000 	mov	r4, r0
    b43c:	ebffffb6 	bl	b31c <dev_barrier>
    b440:	e1a00004 	mov	r0, r4
    b444:	e8bd8010 	pop	{r4, pc}

0000b448 <delay_us>:
    b448:	e92d4070 	push	{r4, r5, r6, lr}
    b44c:	e1a05000 	mov	r5, r0
    b450:	ebfffff5 	bl	b42c <timer_get_usec>
    b454:	e1a04000 	mov	r4, r0
    b458:	ebfffff3 	bl	b42c <timer_get_usec>
    b45c:	e0400004 	sub	r0, r0, r4
    b460:	e1500005 	cmp	r0, r5
    b464:	3afffffb 	bcc	b458 <delay_us+0x10>
    b468:	e8bd8070 	pop	{r4, r5, r6, pc}

0000b46c <delay_ms>:
    b46c:	e92d4010 	push	{r4, lr}
    b470:	e0603280 	rsb	r3, r0, r0, lsl #5
    b474:	e0800103 	add	r0, r0, r3, lsl #2
    b478:	e1a00180 	lsl	r0, r0, #3
    b47c:	ebfffff1 	bl	b448 <delay_us>
    b480:	e8bd8010 	pop	{r4, pc}

0000b484 <delay_sec>:
    b484:	e92d4010 	push	{r4, lr}
    b488:	e0603280 	rsb	r3, r0, r0, lsl #5
    b48c:	e0800103 	add	r0, r0, r3, lsl #2
    b490:	e1a00180 	lsl	r0, r0, #3
    b494:	ebfffff4 	bl	b46c <delay_ms>
    b498:	e8bd8010 	pop	{r4, pc}

0000b49c <and_in32>:
    b49c:	e92d4070 	push	{r4, r5, r6, lr}
    b4a0:	e1a04000 	mov	r4, r0
    b4a4:	e1a05001 	mov	r5, r1
    b4a8:	ebfff2df 	bl	802c <GET32>
    b4ac:	e0001005 	and	r1, r0, r5
    b4b0:	e1a00004 	mov	r0, r4
    b4b4:	ebfff2da 	bl	8024 <PUT32>
    b4b8:	e8bd8070 	pop	{r4, r5, r6, pc}

0000b4bc <or_in32>:
    b4bc:	e92d4070 	push	{r4, r5, r6, lr}
    b4c0:	e1a04000 	mov	r4, r0
    b4c4:	e1a05001 	mov	r5, r1
    b4c8:	ebfff2d7 	bl	802c <GET32>
    b4cc:	e1801005 	orr	r1, r0, r5
    b4d0:	e1a00004 	mov	r0, r4
    b4d4:	ebfff2d2 	bl	8024 <PUT32>
    b4d8:	e8bd8070 	pop	{r4, r5, r6, pc}

0000b4dc <uart_init>:
    b4dc:	e92d4010 	push	{r4, lr}
    b4e0:	ebffff8d 	bl	b31c <dev_barrier>
    b4e4:	e3a01002 	mov	r1, #2, 0
    b4e8:	e3a0000e 	mov	r0, #14, 0
    b4ec:	eb000160 	bl	ba74 <gpio_set_function>
    b4f0:	e3a01002 	mov	r1, #2, 0
    b4f4:	e3a0000f 	mov	r0, #15, 0
    b4f8:	eb00015d 	bl	ba74 <gpio_set_function>
    b4fc:	ebffff86 	bl	b31c <dev_barrier>
    b500:	e3a01001 	mov	r1, #1, 0
    b504:	e59f0064 	ldr	r0, [pc, #100]	; b570 <uart_init+0x94>
    b508:	ebffffeb 	bl	b4bc <or_in32>
    b50c:	ebffff82 	bl	b31c <dev_barrier>
    b510:	e59f405c 	ldr	r4, [pc, #92]	; b574 <uart_init+0x98>
    b514:	e3a01000 	mov	r1, #0, 0
    b518:	e1a00004 	mov	r0, r4
    b51c:	ebfff2c0 	bl	8024 <PUT32>
    b520:	e3a01000 	mov	r1, #0, 0
    b524:	e59f004c 	ldr	r0, [pc, #76]	; b578 <uart_init+0x9c>
    b528:	ebfff2bd 	bl	8024 <PUT32>
    b52c:	e3a01003 	mov	r1, #3, 0
    b530:	e59f0044 	ldr	r0, [pc, #68]	; b57c <uart_init+0xa0>
    b534:	ebfff2ba 	bl	8024 <PUT32>
    b538:	e3a01000 	mov	r1, #0, 0
    b53c:	e59f003c 	ldr	r0, [pc, #60]	; b580 <uart_init+0xa4>
    b540:	ebfff2b7 	bl	8024 <PUT32>
    b544:	e3a01006 	mov	r1, #6, 0
    b548:	e59f0034 	ldr	r0, [pc, #52]	; b584 <uart_init+0xa8>
    b54c:	ebfff2b4 	bl	8024 <PUT32>
    b550:	e59f1030 	ldr	r1, [pc, #48]	; b588 <uart_init+0xac>
    b554:	e59f0030 	ldr	r0, [pc, #48]	; b58c <uart_init+0xb0>
    b558:	ebfff2b1 	bl	8024 <PUT32>
    b55c:	e3a01003 	mov	r1, #3, 0
    b560:	e1a00004 	mov	r0, r4
    b564:	ebfff2ae 	bl	8024 <PUT32>
    b568:	ebffff6b 	bl	b31c <dev_barrier>
    b56c:	e8bd8010 	pop	{r4, pc}
    b570:	20215004 	.word	0x20215004
    b574:	20215060 	.word	0x20215060
    b578:	20215044 	.word	0x20215044
    b57c:	2021504c 	.word	0x2021504c
    b580:	20215050 	.word	0x20215050
    b584:	20215048 	.word	0x20215048
    b588:	0000010e 	.word	0x0000010e
    b58c:	20215068 	.word	0x20215068

0000b590 <uart_can_getc>:
    b590:	e92d4010 	push	{r4, lr}
    b594:	e59f0008 	ldr	r0, [pc, #8]	; b5a4 <uart_can_getc+0x14>
    b598:	ebfff2a3 	bl	802c <GET32>
    b59c:	e2000001 	and	r0, r0, #1, 0
    b5a0:	e8bd8010 	pop	{r4, pc}
    b5a4:	20215054 	.word	0x20215054

0000b5a8 <uart_can_putc>:
    b5a8:	e92d4010 	push	{r4, lr}
    b5ac:	e59f0010 	ldr	r0, [pc, #16]	; b5c4 <uart_can_putc+0x1c>
    b5b0:	ebfff29d 	bl	802c <GET32>
    b5b4:	e3100020 	tst	r0, #32, 0
    b5b8:	13a00001 	movne	r0, #1, 0
    b5bc:	03a00000 	moveq	r0, #0, 0
    b5c0:	e8bd8010 	pop	{r4, pc}
    b5c4:	20215054 	.word	0x20215054

0000b5c8 <uart_can_put8>:
    b5c8:	e92d4010 	push	{r4, lr}
    b5cc:	ebfffff5 	bl	b5a8 <uart_can_putc>
    b5d0:	e8bd8010 	pop	{r4, pc}

0000b5d4 <uart_get8>:
    b5d4:	e92d4010 	push	{r4, lr}
    b5d8:	ebffff4f 	bl	b31c <dev_barrier>
    b5dc:	ea000000 	b	b5e4 <uart_get8+0x10>
    b5e0:	eb00018b 	bl	bc14 <rpi_wait>
    b5e4:	ebffffe9 	bl	b590 <uart_can_getc>
    b5e8:	e3500000 	cmp	r0, #0, 0
    b5ec:	0afffffb 	beq	b5e0 <uart_get8+0xc>
    b5f0:	e59f0010 	ldr	r0, [pc, #16]	; b608 <uart_get8+0x34>
    b5f4:	ebfff28c 	bl	802c <GET32>
    b5f8:	e6ef4070 	uxtb	r4, r0
    b5fc:	ebffff46 	bl	b31c <dev_barrier>
    b600:	e1a00004 	mov	r0, r4
    b604:	e8bd8010 	pop	{r4, pc}
    b608:	20215040 	.word	0x20215040

0000b60c <uart_put8>:
    b60c:	e92d4010 	push	{r4, lr}
    b610:	e1a04000 	mov	r4, r0
    b614:	ebffff40 	bl	b31c <dev_barrier>
    b618:	ea000000 	b	b620 <uart_put8+0x14>
    b61c:	eb00017c 	bl	bc14 <rpi_wait>
    b620:	ebffffe0 	bl	b5a8 <uart_can_putc>
    b624:	e3500000 	cmp	r0, #0, 0
    b628:	0afffffb 	beq	b61c <uart_put8+0x10>
    b62c:	e1a01004 	mov	r1, r4
    b630:	e59f000c 	ldr	r0, [pc, #12]	; b644 <uart_put8+0x38>
    b634:	ebfff27a 	bl	8024 <PUT32>
    b638:	ebffff37 	bl	b31c <dev_barrier>
    b63c:	e3a00001 	mov	r0, #1, 0
    b640:	e8bd8010 	pop	{r4, pc}
    b644:	20215040 	.word	0x20215040

0000b648 <uart_has_data>:
    b648:	e92d4010 	push	{r4, lr}
    b64c:	ebffff32 	bl	b31c <dev_barrier>
    b650:	ebffffce 	bl	b590 <uart_can_getc>
    b654:	e8bd8010 	pop	{r4, pc}

0000b658 <uart_tx_is_empty>:
    b658:	e92d4010 	push	{r4, lr}
    b65c:	ebffff2e 	bl	b31c <dev_barrier>
    b660:	e59f000c 	ldr	r0, [pc, #12]	; b674 <uart_tx_is_empty+0x1c>
    b664:	ebfff270 	bl	802c <GET32>
    b668:	e1a004a0 	lsr	r0, r0, #9
    b66c:	e2000001 	and	r0, r0, #1, 0
    b670:	e8bd8010 	pop	{r4, pc}
    b674:	20215064 	.word	0x20215064

0000b678 <uart_flush_tx>:
    b678:	e92d4010 	push	{r4, lr}
    b67c:	ea000000 	b	b684 <uart_flush_tx+0xc>
    b680:	eb000163 	bl	bc14 <rpi_wait>
    b684:	ebfffff3 	bl	b658 <uart_tx_is_empty>
    b688:	e3500000 	cmp	r0, #0, 0
    b68c:	0afffffb 	beq	b680 <uart_flush_tx+0x8>
    b690:	e8bd8010 	pop	{r4, pc}

0000b694 <uart_disable>:
    b694:	e92d4010 	push	{r4, lr}
    b698:	ebfffff6 	bl	b678 <uart_flush_tx>
    b69c:	ebffff1e 	bl	b31c <dev_barrier>
    b6a0:	e3e01001 	mvn	r1, #1, 0
    b6a4:	e59f0008 	ldr	r0, [pc, #8]	; b6b4 <uart_disable+0x20>
    b6a8:	ebffff7b 	bl	b49c <and_in32>
    b6ac:	ebffff1a 	bl	b31c <dev_barrier>
    b6b0:	e8bd8010 	pop	{r4, pc}
    b6b4:	20215004 	.word	0x20215004

0000b6b8 <using_staff_uart>:
    b6b8:	e12fff1e 	bx	lr

0000b6bc <kmalloc_heap_end>:
    b6bc:	e59f3004 	ldr	r3, [pc, #4]	; b6c8 <kmalloc_heap_end+0xc>
    b6c0:	e5930000 	ldr	r0, [r3]
    b6c4:	e12fff1e 	bx	lr
    b6c8:	0000ce70 	.word	0x0000ce70

0000b6cc <kmalloc_heap_start>:
    b6cc:	e59f3004 	ldr	r3, [pc, #4]	; b6d8 <kmalloc_heap_start+0xc>
    b6d0:	e5930004 	ldr	r0, [r3, #4]
    b6d4:	e12fff1e 	bx	lr
    b6d8:	0000ce70 	.word	0x0000ce70

0000b6dc <kmalloc_heap_ptr>:
    b6dc:	e59f3004 	ldr	r3, [pc, #4]	; b6e8 <kmalloc_heap_ptr+0xc>
    b6e0:	e5930008 	ldr	r0, [r3, #8]
    b6e4:	e12fff1e 	bx	lr
    b6e8:	0000ce70 	.word	0x0000ce70

0000b6ec <kmalloc_init_set_start>:
    b6ec:	e52de004 	push	{lr}		; (str lr, [sp, #-4]!)
    b6f0:	e24dd00c 	sub	sp, sp, #12, 0
    b6f4:	e59f30a8 	ldr	r3, [pc, #168]	; b7a4 <kmalloc_init_set_start+0xb8>
    b6f8:	e5933000 	ldr	r3, [r3]
    b6fc:	e3530000 	cmp	r3, #0, 0
    b700:	1a00000f 	bne	b744 <kmalloc_init_set_start+0x58>
    b704:	e59f3098 	ldr	r3, [pc, #152]	; b7a4 <kmalloc_init_set_start+0xb8>
    b708:	e3a02001 	mov	r2, #1, 0
    b70c:	e5832000 	str	r2, [r3]
    b710:	e3510000 	cmp	r1, #0, 0
    b714:	0a000010 	beq	b75c <kmalloc_init_set_start+0x70>
    b718:	e59f3088 	ldr	r3, [pc, #136]	; b7a8 <kmalloc_init_set_start+0xbc>
    b71c:	e5933008 	ldr	r3, [r3, #8]
    b720:	e1530000 	cmp	r3, r0
    b724:	8a000014 	bhi	b77c <kmalloc_init_set_start+0x90>
    b728:	e59f3078 	ldr	r3, [pc, #120]	; b7a8 <kmalloc_init_set_start+0xbc>
    b72c:	e5830008 	str	r0, [r3, #8]
    b730:	e5830004 	str	r0, [r3, #4]
    b734:	e0800001 	add	r0, r0, r1
    b738:	e5830000 	str	r0, [r3]
    b73c:	e28dd00c 	add	sp, sp, #12, 0
    b740:	e49df004 	pop	{pc}		; (ldr pc, [sp], #4)
    b744:	e3a03031 	mov	r3, #49, 0	; 0x31
    b748:	e59f205c 	ldr	r2, [pc, #92]	; b7ac <kmalloc_init_set_start+0xc0>
    b74c:	e59f105c 	ldr	r1, [pc, #92]	; b7b0 <kmalloc_init_set_start+0xc4>
    b750:	e59f005c 	ldr	r0, [pc, #92]	; b7b4 <kmalloc_init_set_start+0xc8>
    b754:	ebfffd05 	bl	ab70 <printk>
    b758:	ebfffe34 	bl	b030 <clean_reboot>
    b75c:	e59f3054 	ldr	r3, [pc, #84]	; b7b8 <kmalloc_init_set_start+0xcc>
    b760:	e58d3000 	str	r3, [sp]
    b764:	e3a03036 	mov	r3, #54, 0	; 0x36
    b768:	e59f203c 	ldr	r2, [pc, #60]	; b7ac <kmalloc_init_set_start+0xc0>
    b76c:	e59f103c 	ldr	r1, [pc, #60]	; b7b0 <kmalloc_init_set_start+0xc4>
    b770:	e59f0044 	ldr	r0, [pc, #68]	; b7bc <kmalloc_init_set_start+0xd0>
    b774:	ebfffcfd 	bl	ab70 <printk>
    b778:	ebfffe2c 	bl	b030 <clean_reboot>
    b77c:	e59f3024 	ldr	r3, [pc, #36]	; b7a8 <kmalloc_init_set_start+0xbc>
    b780:	e5933000 	ldr	r3, [r3]
    b784:	e58d3004 	str	r3, [sp, #4]
    b788:	e58d0000 	str	r0, [sp]
    b78c:	e3a0303a 	mov	r3, #58, 0	; 0x3a
    b790:	e59f2014 	ldr	r2, [pc, #20]	; b7ac <kmalloc_init_set_start+0xc0>
    b794:	e59f1014 	ldr	r1, [pc, #20]	; b7b0 <kmalloc_init_set_start+0xc4>
    b798:	e59f0020 	ldr	r0, [pc, #32]	; b7c0 <kmalloc_init_set_start+0xd4>
    b79c:	ebfffcf3 	bl	ab70 <printk>
    b7a0:	ebfffe22 	bl	b030 <clean_reboot>
    b7a4:	0000cefc 	.word	0x0000cefc
    b7a8:	0000ce70 	.word	0x0000ce70
    b7ac:	0000ce14 	.word	0x0000ce14
    b7b0:	0000cc40 	.word	0x0000cc40
    b7b4:	0000cc4c 	.word	0x0000cc4c
    b7b8:	0000cc80 	.word	0x0000cc80
    b7bc:	0000bd64 	.word	0x0000bd64
    b7c0:	0000cc8c 	.word	0x0000cc8c

0000b7c4 <kmalloc_notzero>:
    b7c4:	e52de004 	push	{lr}		; (str lr, [sp, #-4]!)
    b7c8:	e24dd00c 	sub	sp, sp, #12, 0
    b7cc:	e3500000 	cmp	r0, #0, 0
    b7d0:	0a00000d 	beq	b80c <kmalloc_notzero+0x48>
    b7d4:	e2800007 	add	r0, r0, #7, 0
    b7d8:	e3c03007 	bic	r3, r0, #7, 0
    b7dc:	e59f208c 	ldr	r2, [pc, #140]	; b870 <kmalloc_notzero+0xac>
    b7e0:	e5920008 	ldr	r0, [r2, #8]
    b7e4:	e3100007 	tst	r0, #7, 0
    b7e8:	1a00000f 	bne	b82c <kmalloc_notzero+0x68>
    b7ec:	e0802003 	add	r2, r0, r3
    b7f0:	e59f1078 	ldr	r1, [pc, #120]	; b870 <kmalloc_notzero+0xac>
    b7f4:	e5812008 	str	r2, [r1, #8]
    b7f8:	e5911000 	ldr	r1, [r1]
    b7fc:	e1520001 	cmp	r2, r1
    b800:	8a000011 	bhi	b84c <kmalloc_notzero+0x88>
    b804:	e28dd00c 	add	sp, sp, #12, 0
    b808:	e49df004 	pop	{pc}		; (ldr pc, [sp], #4)
    b80c:	e59f3060 	ldr	r3, [pc, #96]	; b874 <kmalloc_notzero+0xb0>
    b810:	e58d3000 	str	r3, [sp]
    b814:	e3a03053 	mov	r3, #83, 0	; 0x53
    b818:	e59f2058 	ldr	r2, [pc, #88]	; b878 <kmalloc_notzero+0xb4>
    b81c:	e59f1058 	ldr	r1, [pc, #88]	; b87c <kmalloc_notzero+0xb8>
    b820:	e59f0058 	ldr	r0, [pc, #88]	; b880 <kmalloc_notzero+0xbc>
    b824:	ebfffcd1 	bl	ab70 <printk>
    b828:	ebfffe00 	bl	b030 <clean_reboot>
    b82c:	e59f3050 	ldr	r3, [pc, #80]	; b884 <kmalloc_notzero+0xc0>
    b830:	e58d3000 	str	r3, [sp]
    b834:	e3a03056 	mov	r3, #86, 0	; 0x56
    b838:	e59f2038 	ldr	r2, [pc, #56]	; b878 <kmalloc_notzero+0xb4>
    b83c:	e59f1038 	ldr	r1, [pc, #56]	; b87c <kmalloc_notzero+0xb8>
    b840:	e59f0038 	ldr	r0, [pc, #56]	; b880 <kmalloc_notzero+0xbc>
    b844:	ebfffcc9 	bl	ab70 <printk>
    b848:	ebfffdf8 	bl	b030 <clean_reboot>
    b84c:	e0422001 	sub	r2, r2, r1
    b850:	e58d2004 	str	r2, [sp, #4]
    b854:	e58d3000 	str	r3, [sp]
    b858:	e3a0305b 	mov	r3, #91, 0	; 0x5b
    b85c:	e59f2014 	ldr	r2, [pc, #20]	; b878 <kmalloc_notzero+0xb4>
    b860:	e59f1014 	ldr	r1, [pc, #20]	; b87c <kmalloc_notzero+0xb8>
    b864:	e59f001c 	ldr	r0, [pc, #28]	; b888 <kmalloc_notzero+0xc4>
    b868:	ebfffcc0 	bl	ab70 <printk>
    b86c:	ebfffdef 	bl	b030 <clean_reboot>
    b870:	0000ce70 	.word	0x0000ce70
    b874:	0000cc84 	.word	0x0000cc84
    b878:	0000ce2c 	.word	0x0000ce2c
    b87c:	0000cc40 	.word	0x0000cc40
    b880:	0000bd64 	.word	0x0000bd64
    b884:	0000ccd0 	.word	0x0000ccd0
    b888:	0000cce8 	.word	0x0000cce8

0000b88c <kmalloc>:
    b88c:	e92d4030 	push	{r4, r5, lr}
    b890:	e24dd00c 	sub	sp, sp, #12, 0
    b894:	e2504000 	subs	r4, r0, #0, 0
    b898:	0a000008 	beq	b8c0 <kmalloc+0x34>
    b89c:	e1a00004 	mov	r0, r4
    b8a0:	ebffffc7 	bl	b7c4 <kmalloc_notzero>
    b8a4:	e1a05000 	mov	r5, r0
    b8a8:	e1a02004 	mov	r2, r4
    b8ac:	e3a01000 	mov	r1, #0, 0
    b8b0:	ebfffc86 	bl	aad0 <memset>
    b8b4:	e1a00005 	mov	r0, r5
    b8b8:	e28dd00c 	add	sp, sp, #12, 0
    b8bc:	e8bd8030 	pop	{r4, r5, pc}
    b8c0:	e59f3018 	ldr	r3, [pc, #24]	; b8e0 <kmalloc+0x54>
    b8c4:	e58d3000 	str	r3, [sp]
    b8c8:	e3a03062 	mov	r3, #98, 0	; 0x62
    b8cc:	e59f2010 	ldr	r2, [pc, #16]	; b8e4 <kmalloc+0x58>
    b8d0:	e59f1010 	ldr	r1, [pc, #16]	; b8e8 <kmalloc+0x5c>
    b8d4:	e59f0010 	ldr	r0, [pc, #16]	; b8ec <kmalloc+0x60>
    b8d8:	ebfffca4 	bl	ab70 <printk>
    b8dc:	ebfffdd3 	bl	b030 <clean_reboot>
    b8e0:	0000cc84 	.word	0x0000cc84
    b8e4:	0000ce3c 	.word	0x0000ce3c
    b8e8:	0000cc40 	.word	0x0000cc40
    b8ec:	0000bd64 	.word	0x0000bd64

0000b8f0 <kmalloc_aligned>:
    b8f0:	e52de004 	push	{lr}		; (str lr, [sp, #-4]!)
    b8f4:	e24dd00c 	sub	sp, sp, #12, 0
    b8f8:	e3500000 	cmp	r0, #0, 0
    b8fc:	0a000014 	beq	b954 <kmalloc_aligned+0x64>
    b900:	e2613000 	rsb	r3, r1, #0, 0
    b904:	e1d13003 	bics	r3, r1, r3
    b908:	1a000019 	bne	b974 <kmalloc_aligned+0x84>
    b90c:	e3510008 	cmp	r1, #8, 0
    b910:	33a01008 	movcc	r1, #8, 0
    b914:	e59f30b8 	ldr	r3, [pc, #184]	; b9d4 <kmalloc_aligned+0xe4>
    b918:	e5932008 	ldr	r2, [r3, #8]
    b91c:	e2613000 	rsb	r3, r1, #0, 0
    b920:	e1d1c003 	bics	ip, r1, r3
    b924:	1a00001a 	bne	b994 <kmalloc_aligned+0xa4>
    b928:	e0822001 	add	r2, r2, r1
    b92c:	e2422001 	sub	r2, r2, #1, 0
    b930:	e0033002 	and	r3, r3, r2
    b934:	e2411001 	sub	r1, r1, #1, 0
    b938:	e1110003 	tst	r1, r3
    b93c:	1a00001c 	bne	b9b4 <kmalloc_aligned+0xc4>
    b940:	e59f208c 	ldr	r2, [pc, #140]	; b9d4 <kmalloc_aligned+0xe4>
    b944:	e5823008 	str	r3, [r2, #8]
    b948:	ebffffcf 	bl	b88c <kmalloc>
    b94c:	e28dd00c 	add	sp, sp, #12, 0
    b950:	e49df004 	pop	{pc}		; (ldr pc, [sp], #4)
    b954:	e59f307c 	ldr	r3, [pc, #124]	; b9d8 <kmalloc_aligned+0xe8>
    b958:	e58d3000 	str	r3, [sp]
    b95c:	e3a0306d 	mov	r3, #109, 0	; 0x6d
    b960:	e59f2074 	ldr	r2, [pc, #116]	; b9dc <kmalloc_aligned+0xec>
    b964:	e59f1074 	ldr	r1, [pc, #116]	; b9e0 <kmalloc_aligned+0xf0>
    b968:	e59f0074 	ldr	r0, [pc, #116]	; b9e4 <kmalloc_aligned+0xf4>
    b96c:	ebfffc7f 	bl	ab70 <printk>
    b970:	ebfffdae 	bl	b030 <clean_reboot>
    b974:	e59f306c 	ldr	r3, [pc, #108]	; b9e8 <kmalloc_aligned+0xf8>
    b978:	e58d3000 	str	r3, [sp]
    b97c:	e3a0306e 	mov	r3, #110, 0	; 0x6e
    b980:	e59f2054 	ldr	r2, [pc, #84]	; b9dc <kmalloc_aligned+0xec>
    b984:	e59f1054 	ldr	r1, [pc, #84]	; b9e0 <kmalloc_aligned+0xf0>
    b988:	e59f005c 	ldr	r0, [pc, #92]	; b9ec <kmalloc_aligned+0xfc>
    b98c:	ebfffc77 	bl	ab70 <printk>
    b990:	ebfffda6 	bl	b030 <clean_reboot>
    b994:	e59f3054 	ldr	r3, [pc, #84]	; b9f0 <kmalloc_aligned+0x100>
    b998:	e58d3000 	str	r3, [sp]
    b99c:	e3a03011 	mov	r3, #17, 0
    b9a0:	e59f204c 	ldr	r2, [pc, #76]	; b9f4 <kmalloc_aligned+0x104>
    b9a4:	e59f1034 	ldr	r1, [pc, #52]	; b9e0 <kmalloc_aligned+0xf0>
    b9a8:	e59f0034 	ldr	r0, [pc, #52]	; b9e4 <kmalloc_aligned+0xf4>
    b9ac:	ebfffc6f 	bl	ab70 <printk>
    b9b0:	ebfffd9e 	bl	b030 <clean_reboot>
    b9b4:	e59f303c 	ldr	r3, [pc, #60]	; b9f8 <kmalloc_aligned+0x108>
    b9b8:	e58d3000 	str	r3, [sp]
    b9bc:	e3a03076 	mov	r3, #118, 0	; 0x76
    b9c0:	e59f2014 	ldr	r2, [pc, #20]	; b9dc <kmalloc_aligned+0xec>
    b9c4:	e59f1014 	ldr	r1, [pc, #20]	; b9e0 <kmalloc_aligned+0xf0>
    b9c8:	e59f002c 	ldr	r0, [pc, #44]	; b9fc <kmalloc_aligned+0x10c>
    b9cc:	ebfffc67 	bl	ab70 <printk>
    b9d0:	ebfffd96 	bl	b030 <clean_reboot>
    b9d4:	0000ce70 	.word	0x0000ce70
    b9d8:	0000cc84 	.word	0x0000cc84
    b9dc:	0000ce44 	.word	0x0000ce44
    b9e0:	0000cc40 	.word	0x0000cc40
    b9e4:	0000bd64 	.word	0x0000bd64
    b9e8:	0000cd70 	.word	0x0000cd70
    b9ec:	0000cd30 	.word	0x0000cd30
    b9f0:	0000cd84 	.word	0x0000cd84
    b9f4:	0000ce54 	.word	0x0000ce54
    b9f8:	0000cdc8 	.word	0x0000cdc8
    b9fc:	0000cd90 	.word	0x0000cd90

0000ba00 <kfree_all>:
    ba00:	e59f3008 	ldr	r3, [pc, #8]	; ba10 <kfree_all+0x10>
    ba04:	e5932004 	ldr	r2, [r3, #4]
    ba08:	e5832008 	str	r2, [r3, #8]
    ba0c:	e12fff1e 	bx	lr
    ba10:	0000ce70 	.word	0x0000ce70

0000ba14 <kfree_pop>:
    ba14:	e59f3048 	ldr	r3, [pc, #72]	; ba64 <kfree_pop+0x50>
    ba18:	e5933004 	ldr	r3, [r3, #4]
    ba1c:	e1530000 	cmp	r3, r0
    ba20:	8a000006 	bhi	ba40 <kfree_pop+0x2c>
    ba24:	e59f3038 	ldr	r3, [pc, #56]	; ba64 <kfree_pop+0x50>
    ba28:	e5933000 	ldr	r3, [r3]
    ba2c:	e1530000 	cmp	r3, r0
    ba30:	3a000002 	bcc	ba40 <kfree_pop+0x2c>
    ba34:	e59f3028 	ldr	r3, [pc, #40]	; ba64 <kfree_pop+0x50>
    ba38:	e5830008 	str	r0, [r3, #8]
    ba3c:	e12fff1e 	bx	lr
    ba40:	e52de004 	push	{lr}		; (str lr, [sp, #-4]!)
    ba44:	e24dd00c 	sub	sp, sp, #12, 0
    ba48:	e58d0000 	str	r0, [sp]
    ba4c:	e3a03085 	mov	r3, #133, 0	; 0x85
    ba50:	e59f2010 	ldr	r2, [pc, #16]	; ba68 <kfree_pop+0x54>
    ba54:	e59f1010 	ldr	r1, [pc, #16]	; ba6c <kfree_pop+0x58>
    ba58:	e59f0010 	ldr	r0, [pc, #16]	; ba70 <kfree_pop+0x5c>
    ba5c:	ebfffc43 	bl	ab70 <printk>
    ba60:	ebfffd72 	bl	b030 <clean_reboot>
    ba64:	0000ce70 	.word	0x0000ce70
    ba68:	0000ce5c 	.word	0x0000ce5c
    ba6c:	0000cc40 	.word	0x0000cc40
    ba70:	0000cde4 	.word	0x0000cde4

0000ba74 <gpio_set_function>:
    ba74:	e350002f 	cmp	r0, #47, 0	; 0x2f
    ba78:	1350001f 	cmpne	r0, #31, 0
    ba7c:	812fff1e 	bxhi	lr
    ba80:	e92d4070 	push	{r4, r5, r6, lr}
    ba84:	e1a05001 	mov	r5, r1
    ba88:	e3d13007 	bics	r3, r1, #7, 0
    ba8c:	18bd8070 	popne	{r4, r5, r6, pc}
    ba90:	e59f3040 	ldr	r3, [pc, #64]	; bad8 <gpio_set_function+0x64>
    ba94:	e0832093 	umull	r2, r3, r3, r0
    ba98:	e1a031a3 	lsr	r3, r3, #3
    ba9c:	e1a02003 	mov	r2, r3
    baa0:	e0833103 	add	r3, r3, r3, lsl #2
    baa4:	e0403083 	sub	r3, r0, r3, lsl #1
    baa8:	e0834083 	add	r4, r3, r3, lsl #1
    baac:	e2820302 	add	r0, r2, #134217728	; 0x8000000
    bab0:	e2800702 	add	r0, r0, #524288	; 0x80000
    bab4:	e1a06100 	lsl	r6, r0, #2
    bab8:	e1a00006 	mov	r0, r6
    babc:	ebfff15a 	bl	802c <GET32>
    bac0:	e3a01007 	mov	r1, #7, 0
    bac4:	e1c01411 	bic	r1, r0, r1, lsl r4
    bac8:	e1811415 	orr	r1, r1, r5, lsl r4
    bacc:	e1a00006 	mov	r0, r6
    bad0:	ebfff153 	bl	8024 <PUT32>
    bad4:	e8bd8070 	pop	{r4, r5, r6, pc}
    bad8:	cccccccd 	.word	0xcccccccd

0000badc <gpio_set_output>:
    badc:	e92d4010 	push	{r4, lr}
    bae0:	e3a01001 	mov	r1, #1, 0
    bae4:	ebffffe2 	bl	ba74 <gpio_set_function>
    bae8:	e8bd8010 	pop	{r4, pc}

0000baec <gpio_set_on>:
    baec:	e92d4010 	push	{r4, lr}
    baf0:	e350002f 	cmp	r0, #47, 0	; 0x2f
    baf4:	0a000006 	beq	bb14 <gpio_set_on+0x28>
    baf8:	e350001f 	cmp	r0, #31, 0
    bafc:	88bd8010 	pophi	{r4, pc}
    bb00:	e3a01001 	mov	r1, #1, 0
    bb04:	e1a01011 	lsl	r1, r1, r0
    bb08:	e59f001c 	ldr	r0, [pc, #28]	; bb2c <gpio_set_on+0x40>
    bb0c:	ebfff144 	bl	8024 <PUT32>
    bb10:	e8bd8010 	pop	{r4, pc}
    bb14:	e200001f 	and	r0, r0, #31, 0
    bb18:	e3a01001 	mov	r1, #1, 0
    bb1c:	e1a01011 	lsl	r1, r1, r0
    bb20:	e59f0008 	ldr	r0, [pc, #8]	; bb30 <gpio_set_on+0x44>
    bb24:	ebfff13e 	bl	8024 <PUT32>
    bb28:	e8bd8010 	pop	{r4, pc}
    bb2c:	2020001c 	.word	0x2020001c
    bb30:	20200020 	.word	0x20200020

0000bb34 <gpio_set_off>:
    bb34:	e92d4010 	push	{r4, lr}
    bb38:	e350002f 	cmp	r0, #47, 0	; 0x2f
    bb3c:	0a000006 	beq	bb5c <gpio_set_off+0x28>
    bb40:	e350001f 	cmp	r0, #31, 0
    bb44:	88bd8010 	pophi	{r4, pc}
    bb48:	e3a01001 	mov	r1, #1, 0
    bb4c:	e1a01011 	lsl	r1, r1, r0
    bb50:	e59f001c 	ldr	r0, [pc, #28]	; bb74 <gpio_set_off+0x40>
    bb54:	ebfff132 	bl	8024 <PUT32>
    bb58:	e8bd8010 	pop	{r4, pc}
    bb5c:	e200001f 	and	r0, r0, #31, 0
    bb60:	e3a01001 	mov	r1, #1, 0
    bb64:	e1a01011 	lsl	r1, r1, r0
    bb68:	e59f0008 	ldr	r0, [pc, #8]	; bb78 <gpio_set_off+0x44>
    bb6c:	ebfff12c 	bl	8024 <PUT32>
    bb70:	e8bd8010 	pop	{r4, pc}
    bb74:	20200028 	.word	0x20200028
    bb78:	2020002c 	.word	0x2020002c

0000bb7c <gpio_set_input>:
    bb7c:	e92d4010 	push	{r4, lr}
    bb80:	e3a01000 	mov	r1, #0, 0
    bb84:	ebffffba 	bl	ba74 <gpio_set_function>
    bb88:	e8bd8010 	pop	{r4, pc}

0000bb8c <gpio_write>:
    bb8c:	e92d4010 	push	{r4, lr}
    bb90:	e3510000 	cmp	r1, #0, 0
    bb94:	0a000001 	beq	bba0 <gpio_write+0x14>
    bb98:	ebffffd3 	bl	baec <gpio_set_on>
    bb9c:	e8bd8010 	pop	{r4, pc}
    bba0:	ebffffe3 	bl	bb34 <gpio_set_off>
    bba4:	e8bd8010 	pop	{r4, pc}

0000bba8 <gpio_read>:
    bba8:	e350001f 	cmp	r0, #31, 0
    bbac:	8a000006 	bhi	bbcc <gpio_read+0x24>
    bbb0:	e92d4010 	push	{r4, lr}
    bbb4:	e1a04000 	mov	r4, r0
    bbb8:	e59f0014 	ldr	r0, [pc, #20]	; bbd4 <gpio_read+0x2c>
    bbbc:	ebfff11a 	bl	802c <GET32>
    bbc0:	e1a00430 	lsr	r0, r0, r4
    bbc4:	e2000001 	and	r0, r0, #1, 0
    bbc8:	e8bd8010 	pop	{r4, pc}
    bbcc:	e3e00000 	mvn	r0, #0, 0
    bbd0:	e12fff1e 	bx	lr
    bbd4:	20200034 	.word	0x20200034

0000bbd8 <using_staff_gpio>:
    bbd8:	e12fff1e 	bx	lr

0000bbdc <putk>:
    bbdc:	e92d4010 	push	{r4, lr}
    bbe0:	e1a04000 	mov	r4, r0
    bbe4:	e5d40000 	ldrb	r0, [r4]
    bbe8:	e3500000 	cmp	r0, #0, 0
    bbec:	0a000004 	beq	bc04 <putk+0x28>
    bbf0:	e59f3014 	ldr	r3, [pc, #20]	; bc0c <putk+0x30>
    bbf4:	e5933000 	ldr	r3, [r3]
    bbf8:	e12fff33 	blx	r3
    bbfc:	e2844001 	add	r4, r4, #1, 0
    bc00:	eafffff7 	b	bbe4 <putk+0x8>
    bc04:	e3a00001 	mov	r0, #1, 0
    bc08:	e8bd8010 	pop	{r4, pc}
    bc0c:	0000ce6c 	.word	0x0000ce6c

0000bc10 <reboot_callout>:
    bc10:	e12fff1e 	bx	lr

0000bc14 <rpi_wait>:
    bc14:	e12fff1e 	bx	lr
